(lp0
(dp1
S''
p2
g2
sS'ip'
p3
S'198.189.255.139'
p4
sS'search_date'
p5
S'2013-01-29 14:49:32'
p6
sS'country code'
p7
S'US'
p8
sS'rank'
p9
S'1'
p10
sS'currency name'
p11
g2
sS'currency code'
p12
g2
sS'timezone'
p13
g2
sS'continent'
p14
g2
sS'datetimestamp'
p15
g2
sS'title'
p16
S'The Official Site of Major League Baseball | MLB.com: Homepage'
p17
sS'zipcode'
p18
S'90802'
p19
sS'dmacode'
p20
S'803'
p21
sS'state'
p22
g2
sS'latitude'
p23
S'33.7541961669922'
p24
sS'type'
p25
g2
sS'city'
p26
S'Long Beach'
p27
sS'host'
p28
S'mlb.mlb.com'
p29
sS'nationality'
p30
g2
sS'placename'
p31
g2
sS'keyword'
p32
S'baseball'
p33
sS'url'
p34
S'http://mlb.mlb.com/'
p35
sS'country'
p36
S'United States'
p37
sS'isp'
p38
g2
sS'longitude'
p39
S'-118.201904296875'
p40
sS'search engine'
p41
S'Google'
p42
sS'organization'
p43
g2
sS'area code'
p44
S'562'
p45
sa(dp46
g2
g2
sg3
S'208.80.154.225'
p47
sg5
S'2013-01-29 14:49:32'
p48
sg7
S'US'
p49
sg9
S'2'
p50
sg11
g2
sg12
g2
sg13
g2
sg14
g2
sg15
g2
sg16
S'Baseball - Wikipedia, the free encyclopedia'
p51
sg18
S'94105'
p52
sg20
S'807'
p53
sg22
g2
sg23
S'37.789794921875'
p54
sg25
g2
sg26
S'San Francisco'
p55
sg28
S'en.wikipedia.org'
p56
sg30
g2
sg31
g2
sg32
S'baseball'
p57
sg34
S'http://en.wikipedia.org/wiki/Baseball'
p58
sg36
S'United States'
p59
sg38
g2
sg39
S'-122.394195556641'
p60
sg41
S'Google'
p61
sg43
g2
sg44
S'415'
p62
sa(dp63
g2
g2
sg3
S'68.71.216.176'
p64
sg5
S'2013-01-29 14:49:32'
p65
sg7
S'US'
p66
sg9
S'3'
p67
sg11
g2
sg12
g2
sg13
g2
sg14
g2
sg15
g2
sg16
S'MLB - Major League Baseball Teams, Scores, Stats, News ...'
p68
sg18
g2
sg20
S'819'
p69
sg22
g2
sg23
S'47.606201171875'
p70
sg25
g2
sg26
S'Seattle'
p71
sg28
S'espn.go.com'
p72
sg30
g2
sg31
g2
sg32
S'baseball'
p73
sg34
S'http://espn.go.com/mlb/'
p74
sg36
S'United States'
p75
sg38
g2
sg39
S'-122.332099914551'
p76
sg41
S'Google'
p77
sg43
g2
sg44
S'206'
p78
sa(dp79
g2
g2
sg3
S'77.73.32.100'
p80
sg5
S'2013-01-29 14:49:32'
p81
sg7
S'CH'
p82
sg9
S'4'
p83
sg11
g2
sg12
g2
sg13
g2
sg14
g2
sg15
g2
sg16
S'Baseball - Sports Games at Miniclip.com - Play Free Online Games'
p84
sg18
g2
sg20
S'0'
p85
sg22
g2
sg23
S'47'
p86
sg25
g2
sg26
g2
sg28
S'www.miniclip.com'
p87
sg30
g2
sg31
g2
sg32
S'baseball'
p88
sg34
S'http://www.miniclip.com/games/baseball/en/'
p89
sg36
S'Switzerland'
p90
sg38
g2
sg39
S'8'
p91
sg41
S'Google'
p92
sg43
g2
sg44
g85
sa(dp93
g2
g2
sg3
S'66.35.36.81'
p94
sg5
S'2013-01-29 14:49:32'
p95
sg7
S'US'
p96
sg9
S'5'
p97
sg11
g2
sg12
g2
sg13
g2
sg14
g2
sg15
g2
sg16
S'Baseball-Reference.com - Major League Baseball Statistics and ...'
p98
sg18
S'80525'
p99
sg20
S'751'
p100
sg22
g2
sg23
S'40.5195007324219'
p101
sg25
g2
sg26
S'Fort Collins'
p102
sg28
S'www.baseball-reference.com'
p103
sg30
g2
sg31
g2
sg32
S'baseball'
p104
sg34
S'http://www.baseball-reference.com/'
p105
sg36
S'United States'
p106
sg38
g2
sg39
S'-105.062797546387'
p107
sg41
S'Google'
p108
sg43
g2
sg44
S'970'
p109
sa(dp110
g2
g2
sg3
S'149.48.228.121'
p111
sg5
S'2013-01-29 14:49:32'
p112
sg7
S'US'
p113
sg9
S'6'
p114
sg11
g2
sg12
g2
sg13
g2
sg14
g2
sg15
g2
sg16
S'Baseball | PBS'
p115
sg18
S'22202'
p116
sg20
S'511'
p117
sg22
g2
sg23
S'38.8600006103516'
p118
sg25
g2
sg26
S'Arlington'
p119
sg28
S'www.pbs.org'
p120
sg30
g2
sg31
g2
sg32
S'baseball'
p121
sg34
S'http://www.pbs.org/kenburns/baseball/'
p122
sg36
S'United States'
p123
sg38
g2
sg39
S'-77.0532989501953'
p124
sg41
S'Google'
p125
sg43
g2
sg44
S'703'
p126
sa(dp127
g2
g2
sg3
S'208.84.117.147'
p128
sg5
S'2013-01-29 14:49:32'
p129
sg7
S'US'
p130
sg9
S'7'
p131
sg11
g2
sg12
g2
sg13
g2
sg14
g2
sg15
g2
sg16
S'Baseball Almanac'
p132
sg18
S'91311'
p133
sg20
S'803'
p134
sg22
g2
sg23
S'34.2868041992188'
p135
sg25
g2
sg26
S'Chatsworth'
p136
sg28
S'www.baseball-almanac.com'
p137
sg30
g2
sg31
g2
sg32
S'baseball'
p138
sg34
S'http://www.baseball-almanac.com/'
p139
sg36
S'United States'
p140
sg38
g2
sg39
S'-118.613998413086'
p141
sg41
S'Google'
p142
sg43
g2
sg44
S'818'
p143
sa(dp144
g2
g2
sg3
S'107.20.157.11'
p145
sg5
S'2013-01-29 14:49:32'
p146
sg7
S'US'
p147
sg9
g91
sg11
g2
sg12
g2
sg13
g2
sg14
g2
sg15
g2
sg16
S'Math Baseball - FunBrain.com'
p148
sg18
g2
sg20
S'511'
p149
sg22
g2
sg23
S'39.043701171875'
p150
sg25
g2
sg26
S'Ashburn'
p151
sg28
S'www.funbrain.com'
p152
sg30
g2
sg31
g2
sg32
S'baseball'
p153
sg34
S'http://www.funbrain.com/math/'
p154
sg36
S'United States'
p155
sg38
g2
sg39
S'-77.4875030517578'
p156
sg41
S'Google'
p157
sg43
g2
sg44
S'703'
p158
sa(dp159
g2
g2
sg3
S'67.219.53.40'
p160
sg5
S'2013-01-29 14:49:32'
p161
sg7
S'US'
p162
sg9
S'9'
p163
sg11
g2
sg12
g2
sg13
g2
sg14
g2
sg15
g2
sg16
S'Baseball Hall of Fame | Preserving History - Honoring Excellence ...'
p164
sg18
S'14534'
p165
sg20
S'538'
p166
sg22
g2
sg23
S'43.0906066894531'
p167
sg25
g2
sg26
S'Pittsford'
p168
sg28
S'baseballhall.org'
p169
sg30
g2
sg31
g2
sg32
S'baseball'
p170
sg34
S'http://baseballhall.org/'
p171
sg36
S'United States'
p172
sg38
g2
sg39
S'-77.5149993896484'
p173
sg41
S'Google'
p174
sg43
g2
sg44
S'585'
p175
sa(dp176
g2
g2
sg3
S'209.237.226.248'
p177
sg5
S'2013-01-29 14:49:32'
p178
sg7
S'US'
p179
sg9
S'10'
p180
sg11
g2
sg12
g2
sg13
g2
sg14
g2
sg15
g2
sg16
S'Science of Baseball | Exploratorium'
p181
sg18
S'94103'
p182
sg20
S'807'
p183
sg22
g2
sg23
S'37.7758026123047'
p184
sg25
g2
sg26
S'San Francisco'
p185
sg28
S'www.exploratorium.edu'
p186
sg30
g2
sg31
g2
sg32
S'baseball'
p187
sg34
S'http://www.exploratorium.edu/baseball/'
p188
sg36
S'United States'
p189
sg38
g2
sg39
S'-122.412796020508'
p190
sg41
S'Google'
p191
sg43
g2
sg44
S'415'
p192
sa(dp193
g2
g2
sg3
S'204.102.114.41'
p194
sg5
S'2013-01-29 14:49:32'
p195
sg7
S'US'
p196
sg9
S'11'
p197
sg11
g2
sg12
g2
sg13
g2
sg14
g2
sg15
g2
sg16
S'New York Yankees - Major League Baseball (MLB)'
p198
sg18
S'90802'
p199
sg20
S'803'
p200
sg22
g2
sg23
S'33.7541961669922'
p201
sg25
g2
sg26
S'Long Beach'
p202
sg28
S'newyork.yankees.mlb.com'
p203
sg30
g2
sg31
g2
sg32
S'baseball'
p204
sg34
S'http://newyork.yankees.mlb.com/'
p205
sg36
S'United States'
p206
sg38
g2
sg39
S'-118.201904296875'
p207
sg41
S'Google'
p208
sg43
g2
sg44
S'562'
p209
sa(dp210
g2
g2
sg3
S'23.52.129.176'
p211
sg5
S'2013-01-29 14:49:32'
p212
sg7
S'US'
p213
sg9
S'12'
p214
sg11
g2
sg12
g2
sg13
g2
sg14
g2
sg15
g2
sg16
S'Baseball Tickets at StubHub! MLB Baseball Tickets, NCAA Baseball ...'
p215
sg18
S'02142'
p216
sg20
S'506'
p217
sg22
g2
sg23
S'42.3625946044922'
p218
sg25
g2
sg26
S'Cambridge'
p219
sg28
S'www.stubhub.com'
p220
sg30
g2
sg31
g2
sg32
S'baseball'
p221
sg34
S'http://www.stubhub.com/baseball-tickets/'
p222
sg36
S'United States'
p223
sg38
g2
sg39
S'-71.0842971801758'
p224
sg41
S'Google'
p225
sg43
g2
sg44
S'617'
p226
sa(dp227
g2
g2
sg3
S'198.189.255.146'
p228
sg5
S'2013-01-29 14:49:32'
p229
sg7
S'US'
p230
sg9
S'13'
p231
sg11
g2
sg12
g2
sg13
g2
sg14
g2
sg15
g2
sg16
S'Boston Red Sox - Major League Baseball (MLB)'
p232
sg18
S'90802'
p233
sg20
S'803'
p234
sg22
g2
sg23
S'33.7541961669922'
p235
sg25
g2
sg26
S'Long Beach'
p236
sg28
S'boston.redsox.mlb.com'
p237
sg30
g2
sg31
g2
sg32
S'baseball'
p238
sg34
S'http://boston.redsox.mlb.com/'
p239
sg36
S'United States'
p240
sg38
g2
sg39
S'-118.201904296875'
p241
sg41
S'Google'
p242
sg43
g2
sg44
S'562'
p243
sa(dp244
g2
g2
sg3
S'64.93.76.93'
p245
sg5
S'2013-01-29 14:49:32'
p246
sg7
S'US'
p247
sg9
S'14'
p248
sg11
g2
sg12
g2
sg13
g2
sg14
g2
sg15
g2
sg16
S'Baseball America'
p249
sg18
S'90245'
p250
sg20
S'803'
p251
sg22
g2
sg23
S'33.9163970947266'
p252
sg25
g2
sg26
S'El Segundo'
p253
sg28
S'www.baseballamerica.com'
p254
sg30
g2
sg31
g2
sg32
S'baseball'
p255
sg34
S'http://www.baseballamerica.com/'
p256
sg36
S'United States'
p257
sg38
g2
sg39
S'-118.404098510742'
p258
sg41
S'Google'
p259
sg43
g2
sg44
S'310'
p260
sa(dp261
g2
g2
sg3
S'209.160.28.89'
p262
sg5
S'2013-01-29 14:49:32'
p263
sg7
S'US'
p264
sg9
S'15'
p265
sg11
g2
sg12
g2
sg13
g2
sg14
g2
sg15
g2
sg16
S'Baseball Prospectus'
p266
sg18
g2
sg20
g85
sg22
g2
sg23
S'38'
p267
sg25
g2
sg26
g2
sg28
S'www.baseballprospectus.com'
p268
sg30
g2
sg31
g2
sg32
S'baseball'
p269
sg34
S'http://www.baseballprospectus.com/'
p270
sg36
S'United States'
p271
sg38
g2
sg39
S'-97'
p272
sg41
S'Google'
p273
sg43
g2
sg44
g85
sa(dp274
g2
g2
sg3
S'170.149.172.130'
p275
sg5
S'2013-01-29 14:49:32'
p276
sg7
S'US'
p277
sg9
S'16'
p278
sg11
g2
sg12
g2
sg13
g2
sg14
g2
sg15
g2
sg16
S'Sports News - Major League Baseball - The New York Times'
p279
sg18
S'10018'
p280
sg20
S'501'
p281
sg22
g2
sg23
S'40.7552947998047'
p282
sg25
g2
sg26
S'New York'
p283
sg28
S'www.nytimes.com'
p284
sg30
g2
sg31
g2
sg32
S'baseball'
p285
sg34
S'http://www.nytimes.com/pages/sports/baseball/index.html'
p286
sg36
S'United States'
p287
sg38
g2
sg39
S'-73.9924011230469'
p288
sg41
S'Google'
p289
sg43
g2
sg44
S'212'
p290
sa(dp291
g2
g2
sg3
S'208.80.154.225'
p292
sg5
S'2013-01-29 14:49:32'
p293
sg7
S'US'
p294
sg9
S'17'
p295
sg11
g2
sg12
g2
sg13
g2
sg14
g2
sg15
g2
sg16
S'Baseball (TV series) - Wikipedia, the free encyclopedia'
p296
sg18
S'94105'
p297
sg20
S'807'
p298
sg22
g2
sg23
S'37.789794921875'
p299
sg25
g2
sg26
S'San Francisco'
p300
sg28
S'en.wikipedia.org'
p301
sg30
g2
sg31
g2
sg32
S'baseball'
p302
sg34
S'http://en.wikipedia.org/wiki/Baseball_(TV_series)'
p303
sg36
S'United States'
p304
sg38
g2
sg39
S'-122.394195556641'
p305
sg41
S'Google'
p306
sg43
g2
sg44
S'415'
p307
sa(dp308
g2
g2
sg3
S'72.21.203.211'
p309
sg5
S'2013-01-29 14:49:32'
p310
sg7
S'US'
p311
sg9
S'18'
p312
sg11
g2
sg12
g2
sg13
g2
sg14
g2
sg15
g2
sg16
S'Baseball (TV mini-series 1994\xe2\x80\x93 ) - IMDb'
p313
sg18
S'98104'
p314
sg20
S'819'
p315
sg22
g2
sg23
S'47.6026000976563'
p316
sg25
g2
sg26
S'Seattle'
p317
sg28
S'www.imdb.com'
p318
sg30
g2
sg31
g2
sg32
S'baseball'
p319
sg34
S'http://www.imdb.com/title/tt0108700/'
p320
sg36
S'United States'
p321
sg38
g2
sg39
S'-122.328399658203'
p322
sg41
S'Google'
p323
sg43
g2
sg44
S'206'
p324
sa(dp325
g2
g2
sg3
S'12.130.102.52'
p326
sg5
S'2013-01-29 14:49:32'
p327
sg7
S'US'
p328
sg9
S'19'
p329
sg11
g2
sg12
g2
sg13
g2
sg14
g2
sg15
g2
sg16
S'World Baseball Classic: Home'
p330
sg18
g2
sg20
g85
sg22
g2
sg23
S'38'
p331
sg25
g2
sg26
g2
sg28
S'www.worldbaseballclassic.com'
p332
sg30
g2
sg31
g2
sg32
S'baseball'
p333
sg34
S'http://www.worldbaseballclassic.com/'
p334
sg36
S'United States'
p335
sg38
g2
sg39
S'-97'
p336
sg41
S'Google'
p337
sg43
g2
sg44
g85
sa(dp338
g2
g2
sg3
S'198.189.255.140'
p339
sg5
S'2013-01-29 14:49:32'
p340
sg7
S'US'
p341
sg9
S'20'
p342
sg11
g2
sg12
g2
sg13
g2
sg14
g2
sg15
g2
sg16
S'USABaseball.com: The Official Site of USA Baseball: Home'
p343
sg18
S'90802'
p344
sg20
S'803'
p345
sg22
g2
sg23
S'33.7541961669922'
p346
sg25
g2
sg26
S'Long Beach'
p347
sg28
S'web.usabaseball.com'
p348
sg30
g2
sg31
g2
sg32
S'baseball'
p349
sg34
S'http://web.usabaseball.com/'
p350
sg36
S'United States'
p351
sg38
g2
sg39
S'-118.201904296875'
p352
sg41
S'Google'
p353
sg43
g2
sg44
S'562'
p354
sa(dp355
g2
g2
sg3
S'199.59.149.230'
p356
sg5
S'2013-01-29 14:49:33'
p357
sg7
S'US'
p358
sg9
S'21'
p359
sg11
g2
sg12
g2
sg13
g2
sg14
g2
sg15
g2
sg16
S'Twitter / Search - #baseball'
p360
sg18
S'94107'
p361
sg20
S'807'
p362
sg22
g2
sg23
S'37.7696990966797'
p363
sg25
g2
sg26
S'San Francisco'
p364
sg28
S'twitter.com'
p365
sg30
g2
sg31
g2
sg32
S'baseball'
p366
sg34
S'https://twitter.com/search?q=%23baseball'
p367
sg36
S'United States'
p368
sg38
g2
sg39
S'-122.393295288086'
p369
sg41
S'Google'
p370
sg43
g2
sg44
S'415'
p371
sa(dp372
g2
g2
sg3
S'205.160.30.41'
p373
sg5
S'2013-01-29 14:49:33'
p374
sg7
S'US'
p375
sg9
S'22'
p376
sg11
g2
sg12
g2
sg13
g2
sg14
g2
sg15
g2
sg16
S'2013 Major League Baseball Standings, Scores, Rumors - MLB ...'
p377
sg18
g2
sg20
g85
sg22
g2
sg23
S'38'
p378
sg25
g2
sg26
g2
sg28
S'aol.sportingnews.com'
p379
sg30
g2
sg31
g2
sg32
S'baseball'
p380
sg34
S'http://aol.sportingnews.com/mlb'
p381
sg36
S'United States'
p382
sg38
g2
sg39
S'-97'
p383
sg41
S'Google'
p384
sg43
g2
sg44
g85
sa(dp385
g2
g2
sg3
S'204.102.114.56'
p386
sg5
S'2013-01-29 14:49:33'
p387
sg7
S'US'
p388
sg9
S'23'
p389
sg11
g2
sg12
g2
sg13
g2
sg14
g2
sg15
g2
sg16
S'HowStuffWorks "How Baseball Works"'
p390
sg18
S'90802'
p391
sg20
S'803'
p392
sg22
g2
sg23
S'33.7541961669922'
p393
sg25
g2
sg26
S'Long Beach'
p394
sg28
S'entertainment.howstuffworks.com'
p395
sg30
g2
sg31
g2
sg32
S'baseball'
p396
sg34
S'http://entertainment.howstuffworks.com/baseball.htm'
p397
sg36
S'United States'
p398
sg38
g2
sg39
S'-118.201904296875'
p399
sg41
S'Google'
p400
sg43
g2
sg44
S'562'
p401
sa(dp402
g2
g2
sg3
S'98.139.235.13'
p403
sg5
S'2013-01-29 14:49:33'
p404
sg7
S'US'
p405
sg9
S'24'
p406
sg11
g2
sg12
g2
sg13
g2
sg14
g2
sg15
g2
sg16
S'Yahoo! Sports Fantasy Baseball'
p407
sg18
S'94089'
p408
sg20
S'807'
p409
sg22
g2
sg23
S'37.4248962402344'
p410
sg25
g2
sg26
S'Sunnyvale'
p411
sg28
S'baseball.fantasysports.yahoo.com'
p412
sg30
g2
sg31
g2
sg32
S'baseball'
p413
sg34
S'http://baseball.fantasysports.yahoo.com/'
p414
sg36
S'United States'
p415
sg38
g2
sg39
S'-122.007400512695'
p416
sg41
S'Google'
p417
sg43
g2
sg44
S'408'
p418
sa(dp419
g2
g2
sg3
S'66.162.124.69'
p420
sg5
S'2013-01-29 14:49:33'
p421
sg7
S'US'
p422
sg9
S'25'
p423
sg11
g2
sg12
g2
sg13
g2
sg14
g2
sg15
g2
sg16
S'American Legion Baseball | The American Legion'
p424
sg18
g2
sg20
S'527'
p425
sg22
g2
sg23
S'39.7684020996094'
p426
sg25
g2
sg26
S'Indianapolis'
p427
sg28
S'www.legion.org'
p428
sg30
g2
sg31
g2
sg32
S'baseball'
p429
sg34
S'http://www.legion.org/baseball'
p430
sg36
S'United States'
p431
sg38
g2
sg39
S'-86.1579971313477'
p432
sg41
S'Google'
p433
sg43
g2
sg44
S'317'
p434
sa(dp435
g2
g2
sg3
S'67.228.1.18'
p436
sg5
S'2013-01-29 14:49:33'
p437
sg7
S'US'
p438
sg9
S'26'
p439
sg11
g2
sg12
g2
sg13
g2
sg14
g2
sg15
g2
sg16
S"Batter's Up Baseball Math Game (Multiplication)"
p440
sg18
S'75244'
p441
sg20
S'623'
p442
sg22
g2
sg23
S'32.9299011230469'
p443
sg25
g2
sg26
S'Dallas'
p444
sg28
S'www.prongo.com'
p445
sg30
g2
sg31
g2
sg32
S'baseball'
p446
sg34
S'http://www.prongo.com/math/multiplication.html'
p447
sg36
S'United States'
p448
sg38
g2
sg39
S'-96.8352966308594'
p449
sg41
S'Google'
p450
sg43
g2
sg44
S'972'
p451
sa(dp452
g2
g2
sg3
S'208.80.154.225'
p453
sg5
S'2013-01-29 14:49:33'
p454
sg7
S'US'
p455
sg9
S'27'
p456
sg11
g2
sg12
g2
sg13
g2
sg14
g2
sg15
g2
sg16
S'Major League Baseball - Wikipedia, the free encyclopedia'
p457
sg18
S'94105'
p458
sg20
S'807'
p459
sg22
g2
sg23
S'37.789794921875'
p460
sg25
g2
sg26
S'San Francisco'
p461
sg28
S'en.wikipedia.org'
p462
sg30
g2
sg31
g2
sg32
S'baseball'
p463
sg34
S'http://en.wikipedia.org/wiki/Major_League_Baseball'
p464
sg36
S'United States'
p465
sg38
g2
sg39
S'-122.394195556641'
p466
sg41
S'Google'
p467
sg43
g2
sg44
S'415'
p468
sa(dp469
g2
g2
sg3
S'157.166.255.237'
p470
sg5
S'2013-01-29 14:49:33'
p471
sg7
S'US'
p472
sg9
S'28'
p473
sg11
g2
sg12
g2
sg13
g2
sg14
g2
sg15
g2
sg16
S'Baseball Division I - NCAA.com'
p474
sg18
S'30348'
p475
sg20
S'524'
p476
sg22
g2
sg23
S'33.7489929199219'
p477
sg25
g2
sg26
S'Atlanta'
p478
sg28
S'www.ncaa.com'
p479
sg30
g2
sg31
g2
sg32
S'baseball'
p480
sg34
S'http://www.ncaa.com/sports/baseball/d1'
p481
sg36
S'United States'
p482
sg38
g2
sg39
S'-84.3880004882813'
p483
sg41
S'Google'
p484
sg43
g2
sg44
S'678'
p485
sa(dp486
g2
g2
sg3
S'64.30.230.20'
p487
sg5
S'2013-01-29 14:49:33'
p488
sg7
S'US'
p489
sg9
S'29'
p490
sg11
g2
sg12
g2
sg13
g2
sg14
g2
sg15
g2
sg16
S'2012 Alabama Baseball Schedule - ALABAMA CRIMSON TIDE ...'
p491
sg18
S'33309'
p492
sg20
S'528'
p493
sg22
g2
sg23
S'26.1882019042969'
p494
sg25
g2
sg26
S'Fort Lauderdale'
p495
sg28
S'www.rolltide.com'
p496
sg30
g2
sg31
g2
sg32
S'baseball'
p497
sg34
S'http://www.rolltide.com/sports/m-basebl/sched/alab-m-basebl-sched.html'
p498
sg36
S'United States'
p499
sg38
g2
sg39
S'-80.1710968017578'
p500
sg41
S'Google'
p501
sg43
g2
sg44
S'954'
p502
sa(dp503
g2
g2
sg3
S'68.71.212.157'
p504
sg5
S'2013-01-29 14:49:33'
p505
sg7
S'US'
p506
sg9
S'30'
p507
sg11
g2
sg12
g2
sg13
g2
sg14
g2
sg15
g2
sg16
S'Fantasy Baseball - Free Fantasy Baseball Leagues, Rankings and ...'
p508
sg18
g2
sg20
S'819'
p509
sg22
g2
sg23
S'47.606201171875'
p510
sg25
g2
sg26
S'Seattle'
p511
sg28
S'games.espn.go.com'
p512
sg30
g2
sg31
g2
sg32
S'baseball'
p513
sg34
S'http://games.espn.go.com/frontpage/baseball'
p514
sg36
S'United States'
p515
sg38
g2
sg39
S'-122.332099914551'
p516
sg41
S'Google'
p517
sg43
g2
sg44
S'206'
p518
sa(dp519
g2
g2
sg3
S'64.30.230.20'
p520
sg5
S'2013-01-29 14:49:33'
p521
sg7
S'US'
p522
sg9
S'31'
p523
sg11
g2
sg12
g2
sg13
g2
sg14
g2
sg15
g2
sg16
S'FIGHTINGILLINI.COM - Baseball'
p524
sg18
S'33309'
p525
sg20
S'528'
p526
sg22
g2
sg23
S'26.1882019042969'
p527
sg25
g2
sg26
S'Fort Lauderdale'
p528
sg28
S'www.fightingillini.com'
p529
sg30
g2
sg31
g2
sg32
S'baseball'
p530
sg34
S'http://www.fightingillini.com/sports/m-basebl/ill-m-basebl-body.html'
p531
sg36
S'United States'
p532
sg38
g2
sg39
S'-80.1710968017578'
p533
sg41
S'Google'
p534
sg43
g2
sg44
S'954'
p535
sa(dp536
g2
g2
sg3
S'204.102.114.40'
p537
sg5
S'2013-01-29 14:49:33'
p538
sg7
S'US'
p539
sg9
S'32'
p540
sg11
g2
sg12
g2
sg13
g2
sg14
g2
sg15
g2
sg16
S'The Official Site of Minor League Baseball | Tennessee Smokies ...'
p541
sg18
S'90802'
p542
sg20
S'803'
p543
sg22
g2
sg23
S'33.7541961669922'
p544
sg25
g2
sg26
S'Long Beach'
p545
sg28
S'www.milb.com'
p546
sg30
g2
sg31
g2
sg32
S'baseball'
p547
sg34
S'http://www.milb.com/index.jsp?sid=t553'
p548
sg36
S'United States'
p549
sg38
g2
sg39
S'-118.201904296875'
p550
sg41
S'Google'
p551
sg43
g2
sg44
S'562'
p552
sa(dp553
g2
g2
sg3
S'168.63.28.161'
p554
sg5
S'2013-01-29 14:49:33'
p555
sg7
S'US'
p556
sg9
S'33'
p557
sg11
g2
sg12
g2
sg13
g2
sg14
g2
sg15
g2
sg16
S'The Official Site of the International Baseball Federation'
p558
sg18
g2
sg20
g85
sg22
g2
sg23
S'38'
p559
sg25
g2
sg26
g2
sg28
S'www.ibaf.org'
p560
sg30
g2
sg31
g2
sg32
S'baseball'
p561
sg34
S'http://www.ibaf.org/'
p562
sg36
S'United States'
p563
sg38
g2
sg39
S'-97'
p564
sg41
S'Google'
p565
sg43
g2
sg44
g85
sa(dp566
g2
g2
sg3
S'176.32.98.166'
p567
sg5
S'2013-01-29 14:49:33'
p568
sg7
S'NL'
p569
sg9
S'34'
p570
sg11
g2
sg12
g2
sg13
g2
sg14
g2
sg15
g2
sg16
S'Amazon.com: Baseball - A Film by Ken Burns: John Chancellor ...'
p571
sg18
g2
sg20
g85
sg22
g2
sg23
S'52.5'
p572
sg25
g2
sg26
g2
sg28
S'www.amazon.com'
p573
sg30
g2
sg31
g2
sg32
S'baseball'
p574
sg34
S'http://www.amazon.com/Baseball-A-Film-Ken-Burns/dp/0780630459'
p575
sg36
S'Netherlands'
p576
sg38
g2
sg39
S'5.75'
p577
sg41
S'Google'
p578
sg43
g2
sg44
g85
sa(dp579
g2
g2
sg3
S'216.58.245.102'
p580
sg5
S'2013-01-29 14:49:33'
p581
sg7
S'US'
p582
sg9
S'35'
p583
sg11
g2
sg12
g2
sg13
g2
sg14
g2
sg15
g2
sg16
S'Baseball - News - Huskers.com - Nebraska Athletics Official Web Site'
p584
sg18
S'68114'
p585
sg20
S'652'
p586
sg22
g2
sg23
S'41.2615051269531'
p587
sg25
g2
sg26
S'Omaha'
p588
sg28
S'www.huskers.com'
p589
sg30
g2
sg31
g2
sg32
S'baseball'
p590
sg34
S'http://www.huskers.com/SportSelect.dbml?DB_OEM_ID=100&SPID=33&SPSID=101'
p591
sg36
S'United States'
p592
sg38
g2
sg39
S'-96.0526962280273'
p593
sg41
S'Google'
p594
sg43
g2
sg44
S'402'
p595
sa(dp596
g2
g2
sg3
S'176.32.98.166'
p597
sg5
S'2013-01-29 14:49:33'
p598
sg7
S'NL'
p599
sg9
S'36'
p600
sg11
g2
sg12
g2
sg13
g2
sg14
g2
sg15
g2
sg16
S'Amazon.com: Baseball: A Film by Ken Burns (Includes The Tenth ...'
p601
sg18
g2
sg20
g85
sg22
g2
sg23
S'52.5'
p602
sg25
g2
sg26
g2
sg28
S'www.amazon.com'
p603
sg30
g2
sg31
g2
sg32
S'baseball'
p604
sg34
S'http://www.amazon.com/Baseball-Burns-Includes-Tenth-Inning/dp/B003S1UNZU'
p605
sg36
S'Netherlands'
p606
sg38
g2
sg39
S'5.75'
p607
sg41
S'Google'
p608
sg43
g2
sg44
g85
sa(dp609
g2
g2
sg3
S'23.52.129.176'
p610
sg5
S'2013-01-29 14:49:33'
p611
sg7
S'US'
p612
sg9
S'37'
p613
sg11
g2
sg12
g2
sg13
g2
sg14
g2
sg15
g2
sg16
S'MLB Tickets - MLB Baseball Tickets at StubHub!'
p614
sg18
S'02142'
p615
sg20
S'506'
p616
sg22
g2
sg23
S'42.3625946044922'
p617
sg25
g2
sg26
S'Cambridge'
p618
sg28
S'www.stubhub.com'
p619
sg30
g2
sg31
g2
sg32
S'baseball'
p620
sg34
S'http://www.stubhub.com/mlb-tickets/'
p621
sg36
S'United States'
p622
sg38
g2
sg39
S'-71.0842971801758'
p623
sg41
S'Google'
p624
sg43
g2
sg44
S'617'
p625
sa(dp626
g2
g2
sg3
S'198.189.255.137'
p627
sg5
S'2013-01-29 14:49:33'
p628
sg7
S'US'
p629
sg9
S'38'
p630
sg11
g2
sg12
g2
sg13
g2
sg14
g2
sg15
g2
sg16
S'Baseball - Gator Baseball - GatorZone.com'
p631
sg18
S'90802'
p632
sg20
S'803'
p633
sg22
g2
sg23
S'33.7541961669922'
p634
sg25
g2
sg26
S'Long Beach'
p635
sg28
S'www.gatorzone.com'
p636
sg30
g2
sg31
g2
sg32
S'baseball'
p637
sg34
S'http://www.gatorzone.com/baseball/'
p638
sg36
S'United States'
p639
sg38
g2
sg39
S'-118.201904296875'
p640
sg41
S'Google'
p641
sg43
g2
sg44
S'562'
p642
sa(dp643
g2
g2
sg3
S'64.30.230.20'
p644
sg5
S'2013-01-29 14:49:33'
p645
sg7
S'US'
p646
sg9
S'39'
p647
sg11
g2
sg12
g2
sg13
g2
sg14
g2
sg15
g2
sg16
S'Terp Baseball - Maryland Athletics - University of Maryland Official ...'
p648
sg18
S'33309'
p649
sg20
S'528'
p650
sg22
g2
sg23
S'26.1882019042969'
p651
sg25
g2
sg26
S'Fort Lauderdale'
p652
sg28
S'www.umterps.com'
p653
sg30
g2
sg31
g2
sg32
S'baseball'
p654
sg34
S'http://www.umterps.com/sports/m-basebl/md-m-basebl-body.html'
p655
sg36
S'United States'
p656
sg38
g2
sg39
S'-80.1710968017578'
p657
sg41
S'Google'
p658
sg43
g2
sg44
S'954'
p659
sa(dp660
g2
g2
sg3
S'64.30.230.20'
p661
sg5
S'2013-01-29 14:49:33'
p662
sg7
S'US'
p663
sg9
S'40'
p664
sg11
g2
sg12
g2
sg13
g2
sg14
g2
sg15
g2
sg16
S'Sooner Baseball - SoonerSports.com'
p665
sg18
S'33309'
p666
sg20
S'528'
p667
sg22
g2
sg23
S'26.1882019042969'
p668
sg25
g2
sg26
S'Fort Lauderdale'
p669
sg28
S'www.soonersports.com'
p670
sg30
g2
sg31
g2
sg32
S'baseball'
p671
sg34
S'http://www.soonersports.com/sports/m-basebl/okla-m-basebl-body.html'
p672
sg36
S'United States'
p673
sg38
g2
sg39
S'-80.1710968017578'
p674
sg41
S'Google'
p675
sg43
g2
sg44
S'954'
p676
sa(dp677
g2
g2
sg3
S'174.35.3.8'
p678
sg5
S'2013-01-29 14:49:33'
p679
sg7
S'US'
p680
sg9
S'41'
p681
sg11
g2
sg12
g2
sg13
g2
sg14
g2
sg15
g2
sg16
S'Baseball Games - Free online games at Agame.com'
p682
sg18
S'95134'
p683
sg20
S'807'
p684
sg22
g2
sg23
S'37.4250030517578'
p685
sg25
g2
sg26
S'San Jose'
p686
sg28
S'www.agame.com'
p687
sg30
g2
sg31
g2
sg32
S'baseball'
p688
sg34
S'http://www.agame.com/games/baseball/baseball.html'
p689
sg36
S'United States'
p690
sg38
g2
sg39
S'-121.945999145508'
p691
sg41
S'Google'
p692
sg43
g2
sg44
S'408'
p693
sa(dp694
g2
g2
sg3
S'198.189.255.146'
p695
sg5
S'2013-01-29 14:49:33'
p696
sg7
S'US'
p697
sg9
S'42'
p698
sg11
g2
sg12
g2
sg13
g2
sg14
g2
sg15
g2
sg16
S'Wilson. The Leader in Baseball Gloves, Baseballs and Equipment ...'
p699
sg18
S'90802'
p700
sg20
S'803'
p701
sg22
g2
sg23
S'33.7541961669922'
p702
sg25
g2
sg26
S'Long Beach'
p703
sg28
S'www.wilson.com'
p704
sg30
g2
sg31
g2
sg32
S'baseball'
p705
sg34
S'http://www.wilson.com/en-us/baseball/'
p706
sg36
S'United States'
p707
sg38
g2
sg39
S'-118.201904296875'
p708
sg41
S'Google'
p709
sg43
g2
sg44
S'562'
p710
sa(dp711
g2
g2
sg3
S'64.30.230.20'
p712
sg5
S'2013-01-29 14:49:33'
p713
sg7
S'US'
p714
sg9
S'43'
p715
sg11
g2
sg12
g2
sg13
g2
sg14
g2
sg15
g2
sg16
S'Husky Baseball - University of Washington Official Athletic Site ...'
p716
sg18
S'33309'
p717
sg20
S'528'
p718
sg22
g2
sg23
S'26.1882019042969'
p719
sg25
g2
sg26
S'Fort Lauderdale'
p720
sg28
S'www.gohuskies.com'
p721
sg30
g2
sg31
g2
sg32
S'baseball'
p722
sg34
S'http://www.gohuskies.com/sports/m-basebl/wash-m-basebl-body.html'
p723
sg36
S'United States'
p724
sg38
g2
sg39
S'-80.1710968017578'
p725
sg41
S'Google'
p726
sg43
g2
sg44
S'954'
p727
sa(dp728
g2
g2
sg3
S'204.102.114.40'
p729
sg5
S'2013-01-29 14:49:33'
p730
sg7
S'US'
p731
sg9
S'44'
p732
sg11
g2
sg12
g2
sg13
g2
sg14
g2
sg15
g2
sg16
S'The Official Site of Minor League Baseball | MiLB.com Homepage'
p733
sg18
S'90802'
p734
sg20
S'803'
p735
sg22
g2
sg23
S'33.7541961669922'
p736
sg25
g2
sg26
S'Long Beach'
p737
sg28
S'www.milb.com'
p738
sg30
g2
sg31
g2
sg32
S'baseball'
p739
sg34
S'http://www.milb.com/'
p740
sg36
S'United States'
p741
sg38
g2
sg39
S'-118.201904296875'
p742
sg41
S'Google'
p743
sg43
g2
sg44
S'562'
p744
sa(dp745
g2
g2
sg3
S'206.190.61.107'
p746
sg5
S'2013-01-29 14:49:33'
p747
sg7
S'US'
p748
sg9
S'45'
p749
sg11
g2
sg12
g2
sg13
g2
sg14
g2
sg15
g2
sg16
S'MLB on Yahoo! Sports - News, Scores, Standings, Rumors, Fantasy ...'
p750
sg18
S'94089'
p751
sg20
S'807'
p752
sg22
g2
sg23
S'37.4248962402344'
p753
sg25
g2
sg26
S'Sunnyvale'
p754
sg28
S'sports.yahoo.com'
p755
sg30
g2
sg31
g2
sg32
S'baseball'
p756
sg34
S'http://sports.yahoo.com/mlb/'
p757
sg36
S'United States'
p758
sg38
g2
sg39
S'-122.007400512695'
p759
sg41
S'Google'
p760
sg43
g2
sg44
S'408'
p761
sa(dp762
g2
g2
sg3
S'128.173.121.40'
p763
sg5
S'2013-01-29 14:49:33'
p764
sg7
S'US'
p765
sg9
S'46'
p766
sg11
g2
sg12
g2
sg13
g2
sg14
g2
sg15
g2
sg16
S'hokiesports.com :: Baseball'
p767
sg18
S'24061'
p768
sg20
S'573'
p769
sg22
g2
sg23
S'37.1790924072266'
p770
sg25
g2
sg26
S'Blacksburg'
p771
sg28
S'www.hokiesports.com'
p772
sg30
g2
sg31
g2
sg32
S'baseball'
p773
sg34
S'http://www.hokiesports.com/baseball/'
p774
sg36
S'United States'
p775
sg38
g2
sg39
S'-80.3515014648438'
p776
sg41
S'Google'
p777
sg43
g2
sg44
S'540'
p778
sa(dp779
g2
g2
sg3
S'198.189.255.139'
p780
sg5
S'2013-01-29 14:49:33'
p781
sg7
S'US'
p782
sg9
S'47'
p783
sg11
g2
sg12
g2
sg13
g2
sg14
g2
sg15
g2
sg16
S'MLB.com/kids | MLB.com: Kids - MLB.com - Major League Baseball ...'
p784
sg18
S'90802'
p785
sg20
S'803'
p786
sg22
g2
sg23
S'33.7541961669922'
p787
sg25
g2
sg26
S'Long Beach'
p788
sg28
S'mlb.mlb.com'
p789
sg30
g2
sg31
g2
sg32
S'baseball'
p790
sg34
S'http://mlb.mlb.com/mlb/kids/index.jsp'
p791
sg36
S'United States'
p792
sg38
g2
sg39
S'-118.201904296875'
p793
sg41
S'Google'
p794
sg43
g2
sg44
S'562'
p795
sa(dp796
g2
g2
sg3
S'64.30.230.20'
p797
sg5
S'2013-01-29 14:49:33'
p798
sg7
S'US'
p799
sg9
S'48'
p800
sg11
g2
sg12
g2
sg13
g2
sg14
g2
sg15
g2
sg16
S'University of Southern California Official Athletic Site - Baseball'
p801
sg18
S'33309'
p802
sg20
S'528'
p803
sg22
g2
sg23
S'26.1882019042969'
p804
sg25
g2
sg26
S'Fort Lauderdale'
p805
sg28
S'www.usctrojans.com'
p806
sg30
g2
sg31
g2
sg32
S'baseball'
p807
sg34
S'http://www.usctrojans.com/sports/m-basebl/usc-m-basebl-body.html'
p808
sg36
S'United States'
p809
sg38
g2
sg39
S'-80.1710968017578'
p810
sg41
S'Google'
p811
sg43
g2
sg44
S'954'
p812
sa(dp813
g2
g2
sg3
S'64.30.230.20'
p814
sg5
S'2013-01-29 14:49:33'
p815
sg7
S'US'
p816
sg9
S'49'
p817
sg11
g2
sg12
g2
sg13
g2
sg14
g2
sg15
g2
sg16
S'Baseball - ALABAMA CRIMSON TIDE - University of Alabama ...'
p818
sg18
S'33309'
p819
sg20
S'528'
p820
sg22
g2
sg23
S'26.1882019042969'
p821
sg25
g2
sg26
S'Fort Lauderdale'
p822
sg28
S'www.rolltide.com'
p823
sg30
g2
sg31
g2
sg32
S'baseball'
p824
sg34
S'http://www.rolltide.com/sports/m-basebl/alab-m-basebl-body.html'
p825
sg36
S'United States'
p826
sg38
g2
sg39
S'-80.1710968017578'
p827
sg41
S'Google'
p828
sg43
g2
sg44
S'954'
p829
sa(dp830
g2
g2
sg3
S'198.189.255.147'
p831
sg5
S'2013-01-29 14:49:33'
p832
sg7
S'US'
p833
sg9
S'50'
p834
sg11
g2
sg12
g2
sg13
g2
sg14
g2
sg15
g2
sg16
S'St. Louis Cardinals - Major League Baseball (MLB)'
p835
sg18
S'90802'
p836
sg20
S'803'
p837
sg22
g2
sg23
S'33.7541961669922'
p838
sg25
g2
sg26
S'Long Beach'
p839
sg28
S'stlouis.cardinals.mlb.com'
p840
sg30
g2
sg31
g2
sg32
S'baseball'
p841
sg34
S'http://stlouis.cardinals.mlb.com/'
p842
sg36
S'United States'
p843
sg38
g2
sg39
S'-118.201904296875'
p844
sg41
S'Google'
p845
sg43
g2
sg44
S'562'
p846
sa(dp847
g2
g2
sg3
S'64.30.230.20'
p848
sg5
S'2013-01-29 14:49:34'
p849
sg7
S'US'
p850
sg9
S'51'
p851
sg11
g2
sg12
g2
sg13
g2
sg14
g2
sg15
g2
sg16
S'UTSPORTS.COM - University of Tennessee Athletics - Baseball'
p852
sg18
S'33309'
p853
sg20
S'528'
p854
sg22
g2
sg23
S'26.1882019042969'
p855
sg25
g2
sg26
S'Fort Lauderdale'
p856
sg28
S'www.utsports.com'
p857
sg30
g2
sg31
g2
sg32
S'baseball'
p858
sg34
S'http://www.utsports.com/sports/m-basebl/tenn-m-basebl-body.html'
p859
sg36
S'United States'
p860
sg38
g2
sg39
S'-80.1710968017578'
p861
sg41
S'Google'
p862
sg43
g2
sg44
S'954'
p863
sa(dp864
g2
g2
sg3
S'216.178.47.11'
p865
sg5
S'2013-01-29 14:49:34'
p866
sg7
S'US'
p867
sg9
S'52'
p868
sg11
g2
sg12
g2
sg13
g2
sg14
g2
sg15
g2
sg16
S'Baseball | Free Music, Tour Dates, Photos, Videos'
p869
sg18
S'90210'
p870
sg20
S'803'
p871
sg22
g2
sg23
S'34.0995025634766'
p872
sg25
g2
sg26
S'Beverly Hills'
p873
sg28
S'www.myspace.com'
p874
sg30
g2
sg31
g2
sg32
S'baseball'
p875
sg34
S'http://www.myspace.com/baseballtheband'
p876
sg36
S'United States'
p877
sg38
g2
sg39
S'-118.41429901123'
p878
sg41
S'Google'
p879
sg43
g2
sg44
S'310'
p880
sa(dp881
g2
g2
sg3
S'64.30.230.20'
p882
sg5
S'2013-01-29 14:49:34'
p883
sg7
S'US'
p884
sg9
S'53'
p885
sg11
g2
sg12
g2
sg13
g2
sg14
g2
sg15
g2
sg16
S'The Official Athletic Site of the Atlantic Coast Conference - Baseball'
p886
sg18
S'33309'
p887
sg20
S'528'
p888
sg22
g2
sg23
S'26.1882019042969'
p889
sg25
g2
sg26
S'Fort Lauderdale'
p890
sg28
S'www.theacc.com'
p891
sg30
g2
sg31
g2
sg32
S'baseball'
p892
sg34
S'http://www.theacc.com/sports/m-basebl/acc-m-basebl-body.html'
p893
sg36
S'United States'
p894
sg38
g2
sg39
S'-80.1710968017578'
p895
sg41
S'Google'
p896
sg43
g2
sg44
S'954'
p897
sa(dp898
g2
g2
sg3
S'64.30.230.20'
p899
sg5
S'2013-01-29 14:49:34'
p900
sg7
S'US'
p901
sg9
S'54'
p902
sg11
g2
sg12
g2
sg13
g2
sg14
g2
sg15
g2
sg16
S'Auburn Baseball - Auburn University Official Athletic Site'
p903
sg18
S'33309'
p904
sg20
S'528'
p905
sg22
g2
sg23
S'26.1882019042969'
p906
sg25
g2
sg26
S'Fort Lauderdale'
p907
sg28
S'www.auburntigers.com'
p908
sg30
g2
sg31
g2
sg32
S'baseball'
p909
sg34
S'http://www.auburntigers.com/sports/m-basebl/aub-m-basebl-body.html'
p910
sg36
S'United States'
p911
sg38
g2
sg39
S'-80.1710968017578'
p912
sg41
S'Google'
p913
sg43
g2
sg44
S'954'
p914
sa(dp915
g2
g2
sg3
S'165.230.39.115'
p916
sg5
S'2013-01-29 14:49:34'
p917
sg7
S'US'
p918
sg9
S'55'
p919
sg11
g2
sg12
g2
sg13
g2
sg14
g2
sg15
g2
sg16
S'The Official Site of Rutgers Baseball'
p920
sg18
S'08854'
p921
sg20
S'501'
p922
sg22
g2
sg23
S'40.5516052246094'
p923
sg25
g2
sg26
S'Piscataway'
p924
sg28
S'www.scarletknights.com'
p925
sg30
g2
sg31
g2
sg32
S'baseball'
p926
sg34
S'http://www.scarletknights.com/baseball/'
p927
sg36
S'United States'
p928
sg38
g2
sg39
S'-74.4636993408203'
p929
sg41
S'Google'
p930
sg43
g2
sg44
S'732'
p931
sa(dp932
g2
g2
sg3
S'64.30.230.20'
p933
sg5
S'2013-01-29 14:49:34'
p934
sg7
S'US'
p935
sg9
S'56'
p936
sg11
g2
sg12
g2
sg13
g2
sg14
g2
sg15
g2
sg16
S'Baseball - MGoBlue.com'
p937
sg18
S'33309'
p938
sg20
S'528'
p939
sg22
g2
sg23
S'26.1882019042969'
p940
sg25
g2
sg26
S'Fort Lauderdale'
p941
sg28
S'www.mgoblue.com'
p942
sg30
g2
sg31
g2
sg32
S'baseball'
p943
sg34
S'http://www.mgoblue.com/sports/m-basebl/mich-m-basebl-body.html'
p944
sg36
S'United States'
p945
sg38
g2
sg39
S'-80.1710968017578'
p946
sg41
S'Google'
p947
sg43
g2
sg44
S'954'
p948
sa(dp949
g2
g2
sg3
S'208.80.154.225'
p950
sg5
S'2013-01-29 14:49:34'
p951
sg7
S'US'
p952
sg9
S'57'
p953
sg11
g2
sg12
g2
sg13
g2
sg14
g2
sg15
g2
sg16
S'Baseball at the Summer Olympics - Wikipedia, the free encyclopedia'
p954
sg18
S'94105'
p955
sg20
S'807'
p956
sg22
g2
sg23
S'37.789794921875'
p957
sg25
g2
sg26
S'San Francisco'
p958
sg28
S'en.wikipedia.org'
p959
sg30
g2
sg31
g2
sg32
S'baseball'
p960
sg34
S'http://en.wikipedia.org/wiki/Baseball_at_the_Summer_Olympics'
p961
sg36
S'United States'
p962
sg38
g2
sg39
S'-122.394195556641'
p963
sg41
S'Google'
p964
sg43
g2
sg44
S'415'
p965
sa(dp966
g2
g2
sg3
S'204.102.114.50'
p967
sg5
S'2013-01-29 14:49:34'
p968
sg7
S'US'
p969
sg9
S'58'
p970
sg11
g2
sg12
g2
sg13
g2
sg14
g2
sg15
g2
sg16
S'Baseball Hall of Fame: Bonds, Clemens shut out - latimes.com'
p971
sg18
S'90802'
p972
sg20
S'803'
p973
sg22
g2
sg23
S'33.7541961669922'
p974
sg25
g2
sg26
S'Long Beach'
p975
sg28
S'www.latimes.com'
p976
sg30
g2
sg31
g2
sg32
S'baseball'
p977
sg34
S'http://www.latimes.com/sports/sportsnow/la-sp-sn-baseball-hall-of-fame-bonds-clemens-20130109,0,3974380.story'
p978
sg36
S'United States'
p979
sg38
g2
sg39
S'-118.201904296875'
p980
sg41
S'Google'
p981
sg43
g2
sg44
S'562'
p982
sa(dp983
g2
g2
sg3
S'64.30.230.20'
p984
sg5
S'2013-01-29 14:49:34'
p985
sg7
S'US'
p986
sg9
S'59'
p987
sg11
g2
sg12
g2
sg13
g2
sg14
g2
sg15
g2
sg16
S'Penn State Official Athletic Site - Baseball'
p988
sg18
S'33309'
p989
sg20
S'528'
p990
sg22
g2
sg23
S'26.1882019042969'
p991
sg25
g2
sg26
S'Fort Lauderdale'
p992
sg28
S'www.gopsusports.com'
p993
sg30
g2
sg31
g2
sg32
S'baseball'
p994
sg34
S'http://www.gopsusports.com/sports/m-basebl/psu-m-basebl-body.html'
p995
sg36
S'United States'
p996
sg38
g2
sg39
S'-80.1710968017578'
p997
sg41
S'Google'
p998
sg43
g2
sg44
S'954'
p999
sa(dp1000
g2
g2
sg3
S'208.113.227.91'
p1001
sg5
S'2013-01-29 14:49:34'
p1002
sg7
S'US'
p1003
sg9
S'60'
p1004
sg11
g2
sg12
g2
sg13
g2
sg14
g2
sg15
g2
sg16
S'Sean Lahman | Database Journalist'
p1005
sg18
S'92821'
p1006
sg20
S'803'
p1007
sg22
g2
sg23
S'33.9268951416016'
p1008
sg25
g2
sg26
S'Brea'
p1009
sg28
S'seanlahman.com'
p1010
sg30
g2
sg31
g2
sg32
S'baseball'
p1011
sg34
S'http://seanlahman.com/'
p1012
sg36
S'United States'
p1013
sg38
g2
sg39
S'-117.861198425293'
p1014
sg41
S'Google'
p1015
sg43
g2
sg44
S'714'
p1016
sa(dp1017
g2
g2
sg3
S'174.35.3.16'
p1018
sg5
S'2013-01-29 14:49:34'
p1019
sg7
S'US'
p1020
sg9
S'61'
p1021
sg11
g2
sg12
g2
sg13
g2
sg14
g2
sg15
g2
sg16
S'MSNBC Baseball - NBC Sports'
p1022
sg18
S'95134'
p1023
sg20
S'807'
p1024
sg22
g2
sg23
S'37.4250030517578'
p1025
sg25
g2
sg26
S'San Jose'
p1026
sg28
S'nbcsports.msnbc.com'
p1027
sg30
g2
sg31
g2
sg32
S'baseball'
p1028
sg34
S'http://nbcsports.msnbc.com/id/3032825/'
p1029
sg36
S'United States'
p1030
sg38
g2
sg39
S'-121.945999145508'
p1031
sg41
S'Google'
p1032
sg43
g2
sg44
S'408'
p1033
sa(dp1034
g2
g2
sg3
S'64.30.230.20'
p1035
sg5
S'2013-01-29 14:49:34'
p1036
sg7
S'US'
p1037
sg9
S'62'
p1038
sg11
g2
sg12
g2
sg13
g2
sg14
g2
sg15
g2
sg16
S'Wildcat Baseball - NUSPORTS.COM - The Northwestern Official ...'
p1039
sg18
S'33309'
p1040
sg20
S'528'
p1041
sg22
g2
sg23
S'26.1882019042969'
p1042
sg25
g2
sg26
S'Fort Lauderdale'
p1043
sg28
S'www.nusports.com'
p1044
sg30
g2
sg31
g2
sg32
S'baseball'
p1045
sg34
S'http://www.nusports.com/sports/m-basebl/nw-m-basebl-body.html'
p1046
sg36
S'United States'
p1047
sg38
g2
sg39
S'-80.1710968017578'
p1048
sg41
S'Google'
p1049
sg43
g2
sg44
S'954'
p1050
sa(dp1051
g2
g2
sg3
S'205.160.30.8'
p1052
sg5
S'2013-01-29 14:49:34'
p1053
sg7
S'US'
p1054
sg9
S'63'
p1055
sg11
g2
sg12
g2
sg13
g2
sg14
g2
sg15
g2
sg16
S'High School Baseball - MaxPreps'
p1056
sg18
g2
sg20
g85
sg22
g2
sg23
S'38'
p1057
sg25
g2
sg26
g2
sg28
S'www.maxpreps.com'
p1058
sg30
g2
sg31
g2
sg32
S'baseball'
p1059
sg34
S'http://www.maxpreps.com/national/baseball.htm'
p1060
sg36
S'United States'
p1061
sg38
g2
sg39
S'-97'
p1062
sg41
S'Google'
p1063
sg43
g2
sg44
g85
sa(dp1064
g2
g2
sg3
S'64.30.230.20'
p1065
sg5
S'2013-01-29 14:49:34'
p1066
sg7
S'US'
p1067
sg9
S'64'
p1068
sg11
g2
sg12
g2
sg13
g2
sg14
g2
sg15
g2
sg16
S'University of Kansas Official Athletic Site - Baseball'
p1069
sg18
S'33309'
p1070
sg20
S'528'
p1071
sg22
g2
sg23
S'26.1882019042969'
p1072
sg25
g2
sg26
S'Fort Lauderdale'
p1073
sg28
S'www.kuathletics.com'
p1074
sg30
g2
sg31
g2
sg32
S'baseball'
p1075
sg34
S'http://www.kuathletics.com/sports/m-basebl/kan-m-basebl-body.html'
p1076
sg36
S'United States'
p1077
sg38
g2
sg39
S'-80.1710968017578'
p1078
sg41
S'Google'
p1079
sg43
g2
sg44
S'954'
p1080
sa(dp1081
g2
g2
sg3
S'204.102.114.40'
p1082
sg5
S'2013-01-29 14:49:34'
p1083
sg7
S'US'
p1084
sg9
S'65'
p1085
sg11
g2
sg12
g2
sg13
g2
sg14
g2
sg15
g2
sg16
S'The Official Site of Minor League Baseball | West Michigan ...'
p1086
sg18
S'90802'
p1087
sg20
S'803'
p1088
sg22
g2
sg23
S'33.7541961669922'
p1089
sg25
g2
sg26
S'Long Beach'
p1090
sg28
S'www.milb.com'
p1091
sg30
g2
sg31
g2
sg32
S'baseball'
p1092
sg34
S'http://www.milb.com/index.jsp?sid=t582'
p1093
sg36
S'United States'
p1094
sg38
g2
sg39
S'-118.201904296875'
p1095
sg41
S'Google'
p1096
sg43
g2
sg44
S'562'
p1097
sa(dp1098
g2
g2
sg3
S'157.166.248.13'
p1099
sg5
S'2013-01-29 14:49:34'
p1100
sg7
S'US'
p1101
sg9
S'66'
p1102
sg11
g2
sg12
g2
sg13
g2
sg14
g2
sg15
g2
sg16
S"Baseball great Stan 'The Man' Musial dies at 92 - CNN.com"
p1103
sg18
S'30348'
p1104
sg20
S'524'
p1105
sg22
g2
sg23
S'33.7489929199219'
p1106
sg25
g2
sg26
S'Atlanta'
p1107
sg28
S'edition.cnn.com'
p1108
sg30
g2
sg31
g2
sg32
S'baseball'
p1109
sg34
S'http://edition.cnn.com/2013/01/19/sport/missouri-musial-obit/index.html'
p1110
sg36
S'United States'
p1111
sg38
g2
sg39
S'-84.3880004882813'
p1112
sg41
S'Google'
p1113
sg43
g2
sg44
S'678'
p1114
sa(dp1115
g2
g2
sg3
S'170.149.172.130'
p1116
sg5
S'2013-01-29 14:49:34'
p1117
sg7
S'US'
p1118
sg9
S'67'
p1119
sg11
g2
sg12
g2
sg13
g2
sg14
g2
sg15
g2
sg16
S'No Players Elected to Baseball Hall of Fame - NYTimes.com'
p1120
sg18
S'10018'
p1121
sg20
S'501'
p1122
sg22
g2
sg23
S'40.7552947998047'
p1123
sg25
g2
sg26
S'New York'
p1124
sg28
S'www.nytimes.com'
p1125
sg30
g2
sg31
g2
sg32
S'baseball'
p1126
sg34
S'http://www.nytimes.com/2013/01/10/sports/baseball/no-players-elected-to-baseball-hall-of-fame.html?pagewanted=all'
p1127
sg36
S'United States'
p1128
sg38
g2
sg39
S'-73.9924011230469'
p1129
sg41
S'Google'
p1130
sg43
g2
sg44
S'212'
p1131
sa(dp1132
g2
g2
sg3
S'216.58.245.102'
p1133
sg5
S'2013-01-29 14:49:34'
p1134
sg7
S'US'
p1135
sg9
S'68'
p1136
sg11
g2
sg12
g2
sg13
g2
sg14
g2
sg15
g2
sg16
S'Baseball - News - Clemson Tigers Official Athletics Site'
p1137
sg18
S'68114'
p1138
sg20
S'652'
p1139
sg22
g2
sg23
S'41.2615051269531'
p1140
sg25
g2
sg26
S'Omaha'
p1141
sg28
S'www.clemsontigers.com'
p1142
sg30
g2
sg31
g2
sg32
S'baseball'
p1143
sg34
S'http://www.clemsontigers.com/SportSelect.dbml?DB_OEM_ID=28500&SPID=103712&SPSID=657829'
p1144
sg36
S'United States'
p1145
sg38
g2
sg39
S'-96.0526962280273'
p1146
sg41
S'Google'
p1147
sg43
g2
sg44
S'402'
p1148
sa(dp1149
g2
g2
sg3
S'72.21.215.232'
p1150
sg5
S'2013-01-29 14:49:34'
p1151
sg7
S'US'
p1152
sg9
S'69'
p1153
sg11
g2
sg12
g2
sg13
g2
sg14
g2
sg15
g2
sg16
S'Amazon.com: Baseball - A Film By Ken Burns: Mamie Ruth Moberly ...'
p1154
sg18
S'98104'
p1155
sg20
S'819'
p1156
sg22
g2
sg23
S'47.6026000976563'
p1157
sg25
g2
sg26
S'Seattle'
p1158
sg28
S'www.amazon.com'
p1159
sg30
g2
sg31
g2
sg32
S'baseball'
p1160
sg34
S'http://www.amazon.com/Baseball-Film-By-Ken-Burns/dp/B000BITUDO'
p1161
sg36
S'United States'
p1162
sg38
g2
sg39
S'-122.328399658203'
p1163
sg41
S'Google'
p1164
sg43
g2
sg44
S'206'
p1165
sa(dp1166
g2
g2
sg3
S'216.58.245.102'
p1167
sg5
S'2013-01-29 14:49:34'
p1168
sg7
S'US'
p1169
sg9
S'70'
p1170
sg11
g2
sg12
g2
sg13
g2
sg14
g2
sg15
g2
sg16
S'Baseball - News - University of North Carolina Tar Heels Official ...'
p1171
sg18
S'68114'
p1172
sg20
S'652'
p1173
sg22
g2
sg23
S'41.2615051269531'
p1174
sg25
g2
sg26
S'Omaha'
p1175
sg28
S'www.goheels.com'
p1176
sg30
g2
sg31
g2
sg32
S'baseball'
p1177
sg34
S'http://www.goheels.com/SportSelect.dbml?DB_OEM_ID=3350&SPID=12960&SPSID=668152'
p1178
sg36
S'United States'
p1179
sg38
g2
sg39
S'-96.0526962280273'
p1180
sg41
S'Google'
p1181
sg43
g2
sg44
S'402'
p1182
sa(dp1183
g2
g2
sg3
S'64.30.230.20'
p1184
sg5
S'2013-01-29 14:49:34'
p1185
sg7
S'US'
p1186
sg9
S'71'
p1187
sg11
g2
sg12
g2
sg13
g2
sg14
g2
sg15
g2
sg16
S'Michigan State Official Athletic Site - Baseball'
p1188
sg18
S'33309'
p1189
sg20
S'528'
p1190
sg22
g2
sg23
S'26.1882019042969'
p1191
sg25
g2
sg26
S'Fort Lauderdale'
p1192
sg28
S'www.msuspartans.com'
p1193
sg30
g2
sg31
g2
sg32
S'baseball'
p1194
sg34
S'http://www.msuspartans.com/sports/m-basebl/msu-m-basebl-body.html'
p1195
sg36
S'United States'
p1196
sg38
g2
sg39
S'-80.1710968017578'
p1197
sg41
S'Google'
p1198
sg43
g2
sg44
S'954'
p1199
sa(dp1200
g2
g2
sg3
S'107.6.88.169'
p1201
sg5
S'2013-01-29 14:49:34'
p1202
sg7
S'US'
p1203
sg9
S'72'
p1204
sg11
g2
sg12
g2
sg13
g2
sg14
g2
sg15
g2
sg16
S'Relativistic Baseball'
p1205
sg18
S'10006'
p1206
sg20
S'501'
p1207
sg22
g2
sg23
S'40.7082061767578'
p1208
sg25
g2
sg26
S'New York'
p1209
sg28
S'what-if.xkcd.com'
p1210
sg30
g2
sg31
g2
sg32
S'baseball'
p1211
sg34
S'http://what-if.xkcd.com/1/'
p1212
sg36
S'United States'
p1213
sg38
g2
sg39
S'-74.0131988525391'
p1214
sg41
S'Google'
p1215
sg43
g2
sg44
S'212'
p1216
sa(dp1217
g2
g2
sg3
S'205.160.30.40'
p1218
sg5
S'2013-01-29 14:49:34'
p1219
sg7
S'US'
p1220
sg9
S'73'
p1221
sg11
g2
sg12
g2
sg13
g2
sg14
g2
sg15
g2
sg16
S'Baseball'
p1222
sg18
g2
sg20
g85
sg22
g2
sg23
S'38'
p1223
sg25
g2
sg26
g2
sg28
S'www.reddit.com'
p1224
sg30
g2
sg31
g2
sg32
S'baseball'
p1225
sg34
S'http://www.reddit.com/r/baseball'
p1226
sg36
S'United States'
p1227
sg38
g2
sg39
S'-97'
p1228
sg41
S'Google'
p1229
sg43
g2
sg44
g85
sa(dp1230
g2
g2
sg3
S'216.58.245.102'
p1231
sg5
S'2013-01-29 14:49:34'
p1232
sg7
S'US'
p1233
sg9
S'74'
p1234
sg11
g2
sg12
g2
sg13
g2
sg14
g2
sg15
g2
sg16
S'Baseball - News - University of Miami Hurricanes Official Athletic Site'
p1235
sg18
S'68114'
p1236
sg20
S'652'
p1237
sg22
g2
sg23
S'41.2615051269531'
p1238
sg25
g2
sg26
S'Omaha'
p1239
sg28
S'www.hurricanesports.com'
p1240
sg30
g2
sg31
g2
sg32
S'baseball'
p1241
sg34
S'http://www.hurricanesports.com/SportSelect.dbml?DB_OEM_ID=28700&SPID=103774&SPSID=658425'
p1242
sg36
S'United States'
p1243
sg38
g2
sg39
S'-96.0526962280273'
p1244
sg41
S'Google'
p1245
sg43
g2
sg44
S'402'
p1246
sa(dp1247
g2
g2
sg3
S'208.64.111.142'
p1248
sg5
S'2013-01-29 14:49:34'
p1249
sg7
S'US'
p1250
sg9
S'75'
p1251
sg11
g2
sg12
g2
sg13
g2
sg14
g2
sg15
g2
sg16
S'New York Baseball, Yankees, Mets, Stats, Photos and Stories ...'
p1252
sg18
S'07304'
p1253
sg20
S'501'
p1254
sg22
g2
sg23
S'40.7167053222656'
p1255
sg25
g2
sg26
S'Jersey City'
p1256
sg28
S'www.nydailynews.com'
p1257
sg30
g2
sg31
g2
sg32
S'baseball'
p1258
sg34
S'http://www.nydailynews.com/sports/baseball'
p1259
sg36
S'United States'
p1260
sg38
g2
sg39
S'-74.0781021118164'
p1261
sg41
S'Google'
p1262
sg43
g2
sg44
S'201'
p1263
sa(dp1264
g2
g2
sg3
S'204.102.114.41'
p1265
sg5
S'2013-01-29 14:49:34'
p1266
sg7
S'US'
p1267
sg9
S'76'
p1268
sg11
g2
sg12
g2
sg13
g2
sg14
g2
sg15
g2
sg16
S'MLB Baseball Scores - MLB Scoreboard - ESPN'
p1269
sg18
S'90802'
p1270
sg20
S'803'
p1271
sg22
g2
sg23
S'33.7541961669922'
p1272
sg25
g2
sg26
S'Long Beach'
p1273
sg28
S'scores.espn.go.com'
p1274
sg30
g2
sg31
g2
sg32
S'baseball'
p1275
sg34
S'http://scores.espn.go.com/mlb/scoreboard'
p1276
sg36
S'United States'
p1277
sg38
g2
sg39
S'-118.201904296875'
p1278
sg41
S'Google'
p1279
sg43
g2
sg44
S'562'
p1280
sa(dp1281
g2
g2
sg3
S'208.80.154.225'
p1282
sg5
S'2013-01-29 14:49:34'
p1283
sg7
S'US'
p1284
sg9
S'77'
p1285
sg11
g2
sg12
g2
sg13
g2
sg14
g2
sg15
g2
sg16
S'Baseball (ball) - Wikipedia, the free encyclopedia'
p1286
sg18
S'94105'
p1287
sg20
S'807'
p1288
sg22
g2
sg23
S'37.789794921875'
p1289
sg25
g2
sg26
S'San Francisco'
p1290
sg28
S'en.wikipedia.org'
p1291
sg30
g2
sg31
g2
sg32
S'baseball'
p1292
sg34
S'http://en.wikipedia.org/wiki/Baseball_(ball)'
p1293
sg36
S'United States'
p1294
sg38
g2
sg39
S'-122.394195556641'
p1295
sg41
S'Google'
p1296
sg43
g2
sg44
S'415'
p1297
sa(dp1298
g2
g2
sg3
S'64.30.230.20'
p1299
sg5
S'2013-01-29 14:49:34'
p1300
sg7
S'US'
p1301
sg9
S'78'
p1302
sg11
g2
sg12
g2
sg13
g2
sg14
g2
sg15
g2
sg16
S'Baseball - Boston College Athletics'
p1303
sg18
S'33309'
p1304
sg20
S'528'
p1305
sg22
g2
sg23
S'26.1882019042969'
p1306
sg25
g2
sg26
S'Fort Lauderdale'
p1307
sg28
S'www.bceagles.com'
p1308
sg30
g2
sg31
g2
sg32
S'baseball'
p1309
sg34
S'http://www.bceagles.com/sports/m-basebl/bc-m-basebl-body.html'
p1310
sg36
S'United States'
p1311
sg38
g2
sg39
S'-80.1710968017578'
p1312
sg41
S'Google'
p1313
sg43
g2
sg44
S'954'
p1314
sa(dp1315
g2
g2
sg3
S'64.30.230.20'
p1316
sg5
S'2013-01-29 14:49:34'
p1317
sg7
S'US'
p1318
sg9
S'79'
p1319
sg11
g2
sg12
g2
sg13
g2
sg14
g2
sg15
g2
sg16
S'UND.COM - University of Notre Dame Official Athletic Site - Baseball'
p1320
sg18
S'33309'
p1321
sg20
S'528'
p1322
sg22
g2
sg23
S'26.1882019042969'
p1323
sg25
g2
sg26
S'Fort Lauderdale'
p1324
sg28
S'www.und.com'
p1325
sg30
g2
sg31
g2
sg32
S'baseball'
p1326
sg34
S'http://www.und.com/sports/m-basebl/nd-m-basebl-body.html'
p1327
sg36
S'United States'
p1328
sg38
g2
sg39
S'-80.1710968017578'
p1329
sg41
S'Google'
p1330
sg43
g2
sg44
S'954'
p1331
sa(dp1332
g2
g2
sg3
S'216.58.245.102'
p1333
sg5
S'2013-01-29 14:49:34'
p1334
sg7
S'US'
p1335
sg9
S'80'
p1336
sg11
g2
sg12
g2
sg13
g2
sg14
g2
sg15
g2
sg16
S'Baseball - News - GoDucks.com - The University of Oregon Official ...'
p1337
sg18
S'68114'
p1338
sg20
S'652'
p1339
sg22
g2
sg23
S'41.2615051269531'
p1340
sg25
g2
sg26
S'Omaha'
p1341
sg28
S'www.goducks.com'
p1342
sg30
g2
sg31
g2
sg32
S'baseball'
p1343
sg34
S'http://www.goducks.com/SportSelect.dbml?DB_OEM_ID=500&SPID=11401&SPSID=94831'
p1344
sg36
S'United States'
p1345
sg38
g2
sg39
S'-96.0526962280273'
p1346
sg41
S'Google'
p1347
sg43
g2
sg44
S'402'
p1348
sa(dp1349
g2
g2
sg3
S'64.30.230.20'
p1350
sg5
S'2013-01-29 14:49:35'
p1351
sg7
S'US'
p1352
sg9
S'81'
p1353
sg11
g2
sg12
g2
sg13
g2
sg14
g2
sg15
g2
sg16
S'Baseball - Ohio State Buckeyes'
p1354
sg18
S'33309'
p1355
sg20
S'528'
p1356
sg22
g2
sg23
S'26.1882019042969'
p1357
sg25
g2
sg26
S'Fort Lauderdale'
p1358
sg28
S'www.ohiostatebuckeyes.com'
p1359
sg30
g2
sg31
g2
sg32
S'baseball'
p1360
sg34
S'http://www.ohiostatebuckeyes.com/sports/m-basebl/osu-m-basebl-body.html'
p1361
sg36
S'United States'
p1362
sg38
g2
sg39
S'-80.1710968017578'
p1363
sg41
S'Google'
p1364
sg43
g2
sg44
S'954'
p1365
sa(dp1366
g2
g2
sg3
S'64.30.230.20'
p1367
sg5
S'2013-01-29 14:49:35'
p1368
sg7
S'US'
p1369
sg9
S'82'
p1370
sg11
g2
sg12
g2
sg13
g2
sg14
g2
sg15
g2
sg16
S'Schedule - East Carolina Official Athletic Site - Baseball'
p1371
sg18
S'33309'
p1372
sg20
S'528'
p1373
sg22
g2
sg23
S'26.1882019042969'
p1374
sg25
g2
sg26
S'Fort Lauderdale'
p1375
sg28
S'www.ecupirates.com'
p1376
sg30
g2
sg31
g2
sg32
S'baseball'
p1377
sg34
S'http://www.ecupirates.com/sports/m-basebl/sched/ecu-m-basebl-sched.html'
p1378
sg36
S'United States'
p1379
sg38
g2
sg39
S'-80.1710968017578'
p1380
sg41
S'Google'
p1381
sg43
g2
sg44
S'954'
p1382
sa(dp1383
g2
g2
sg3
S'64.30.230.20'
p1384
sg5
S'2013-01-29 14:49:35'
p1385
sg7
S'US'
p1386
sg9
S'83'
p1387
sg11
g2
sg12
g2
sg13
g2
sg14
g2
sg15
g2
sg16
S'Arizona State University Official Athletic Site - Baseball'
p1388
sg18
S'33309'
p1389
sg20
S'528'
p1390
sg22
g2
sg23
S'26.1882019042969'
p1391
sg25
g2
sg26
S'Fort Lauderdale'
p1392
sg28
S'www.thesundevils.com'
p1393
sg30
g2
sg31
g2
sg32
S'baseball'
p1394
sg34
S'http://www.thesundevils.com/sports/m-basebl/asu-m-basebl-body.html'
p1395
sg36
S'United States'
p1396
sg38
g2
sg39
S'-80.1710968017578'
p1397
sg41
S'Google'
p1398
sg43
g2
sg44
S'954'
p1399
sa(dp1400
g2
g2
sg3
S'216.58.245.102'
p1401
sg5
S'2013-01-29 14:49:35'
p1402
sg7
S'US'
p1403
sg9
S'84'
p1404
sg11
g2
sg12
g2
sg13
g2
sg14
g2
sg15
g2
sg16
S'Baseball - News - PennAthletics.com\xe2\x80\x94The Official Website of ...'
p1405
sg18
S'68114'
p1406
sg20
S'652'
p1407
sg22
g2
sg23
S'41.2615051269531'
p1408
sg25
g2
sg26
S'Omaha'
p1409
sg28
S'www.pennathletics.com'
p1410
sg30
g2
sg31
g2
sg32
S'baseball'
p1411
sg34
S'http://www.pennathletics.com/SportSelect.dbml?DB_OEM_ID=1700&SPID=548&SPSID=8829'
p1412
sg36
S'United States'
p1413
sg38
g2
sg39
S'-96.0526962280273'
p1414
sg41
S'Google'
p1415
sg43
g2
sg44
S'402'
p1416
sa(dp1417
g2
g2
sg3
S'74.125.224.174'
p1418
sg5
S'2013-01-29 14:49:35'
p1419
sg7
S'US'
p1420
sg9
S'85'
p1421
sg11
g2
sg12
g2
sg13
g2
sg14
g2
sg15
g2
sg16
S'Baseball Player Fakes Hit, Ejected From Game - Foolass.COM ...'
p1422
sg18
S'94043'
p1423
sg20
S'807'
p1424
sg22
g2
sg23
S'37.4192047119141'
p1425
sg25
g2
sg26
S'Mountain View'
p1426
sg28
S'www.youtube.com'
p1427
sg30
g2
sg31
g2
sg32
S'baseball'
p1428
sg34
S'http://www.youtube.com/watch?v=NyNZGm4gVH8'
p1429
sg36
S'United States'
p1430
sg38
g2
sg39
S'-122.057403564453'
p1431
sg41
S'Google'
p1432
sg43
g2
sg44
S'650'
p1433
sa(dp1434
g2
g2
sg3
S'64.30.230.20'
p1435
sg5
S'2013-01-29 14:49:35'
p1436
sg7
S'US'
p1437
sg9
S'86'
p1438
sg11
g2
sg12
g2
sg13
g2
sg14
g2
sg15
g2
sg16
S'Florida State University Official Athletic Site - Baseball'
p1439
sg18
S'33309'
p1440
sg20
S'528'
p1441
sg22
g2
sg23
S'26.1882019042969'
p1442
sg25
g2
sg26
S'Fort Lauderdale'
p1443
sg28
S'www.seminoles.com'
p1444
sg30
g2
sg31
g2
sg32
S'baseball'
p1445
sg34
S'http://www.seminoles.com/sports/m-basebl/fsu-m-basebl-body.html'
p1446
sg36
S'United States'
p1447
sg38
g2
sg39
S'-80.1710968017578'
p1448
sg41
S'Google'
p1449
sg43
g2
sg44
S'954'
p1450
sa(dp1451
g2
g2
sg3
S'208.80.154.225'
p1452
sg5
S'2013-01-29 14:49:35'
p1453
sg7
S'US'
p1454
sg9
S'87'
p1455
sg11
g2
sg12
g2
sg13
g2
sg14
g2
sg15
g2
sg16
S'Baseball (drinking game) - Wikipedia, the free encyclopedia'
p1456
sg18
S'94105'
p1457
sg20
S'807'
p1458
sg22
g2
sg23
S'37.789794921875'
p1459
sg25
g2
sg26
S'San Francisco'
p1460
sg28
S'en.wikipedia.org'
p1461
sg30
g2
sg31
g2
sg32
S'baseball'
p1462
sg34
S'http://en.wikipedia.org/wiki/Baseball_(drinking_game)'
p1463
sg36
S'United States'
p1464
sg38
g2
sg39
S'-122.394195556641'
p1465
sg41
S'Google'
p1466
sg43
g2
sg44
S'415'
p1467
sa(dp1468
g2
g2
sg3
S'208.185.127.40'
p1469
sg5
S'2013-01-29 14:49:35'
p1470
sg7
S'US'
p1471
sg9
S'88'
p1472
sg11
g2
sg12
g2
sg13
g2
sg14
g2
sg15
g2
sg16
S'History of Baseball - Alexander Cartwright'
p1473
sg18
S'10018'
p1474
sg20
S'501'
p1475
sg22
g2
sg23
S'40.7552947998047'
p1476
sg25
g2
sg26
S'New York'
p1477
sg28
S'inventors.about.com'
p1478
sg30
g2
sg31
g2
sg32
S'baseball'
p1479
sg34
S'http://inventors.about.com/od/bstartinventions/a/Baseball.htm'
p1480
sg36
S'United States'
p1481
sg38
g2
sg39
S'-73.9924011230469'
p1482
sg41
S'Google'
p1483
sg43
g2
sg44
S'212'
p1484
sa(dp1485
g2
g2
sg3
S'216.58.245.102'
p1486
sg5
S'2013-01-29 14:49:35'
p1487
sg7
S'US'
p1488
sg9
S'89'
p1489
sg11
g2
sg12
g2
sg13
g2
sg14
g2
sg15
g2
sg16
S'Baseball - Baseball - Duke University Blue Devils | Official Athletics ...'
p1490
sg18
S'68114'
p1491
sg20
S'652'
p1492
sg22
g2
sg23
S'41.2615051269531'
p1493
sg25
g2
sg26
S'Omaha'
p1494
sg28
S'www.goduke.com'
p1495
sg30
g2
sg31
g2
sg32
S'baseball'
p1496
sg34
S'http://www.goduke.com/SportSelect.dbml?DB_OEM_ID=4200&SPID=1850&SPSID=22847'
p1497
sg36
S'United States'
p1498
sg38
g2
sg39
S'-96.0526962280273'
p1499
sg41
S'Google'
p1500
sg43
g2
sg44
S'402'
p1501
sa(dp1502
g2
g2
sg3
S'68.171.152.174'
p1503
sg5
S'2013-01-29 14:49:35'
p1504
sg7
S'US'
p1505
sg9
S'90'
p1506
sg11
g2
sg12
g2
sg13
g2
sg14
g2
sg15
g2
sg16
S'Baseball'
p1507
sg18
S'01752'
p1508
sg20
S'506'
p1509
sg22
g2
sg23
S'42.3457946777344'
p1510
sg25
g2
sg26
S'Marlborough'
p1511
sg28
S'pac-12.com'
p1512
sg30
g2
sg31
g2
sg32
S'baseball'
p1513
sg34
S'http://pac-12.com/Sports/Baseball.aspx'
p1514
sg36
S'United States'
p1515
sg38
g2
sg39
S'-71.5505981445313'
p1516
sg41
S'Google'
p1517
sg43
g2
sg44
S'508'
p1518
sa(dp1519
g2
g2
sg3
S'64.30.230.20'
p1520
sg5
S'2013-01-29 14:49:35'
p1521
sg7
S'US'
p1522
sg9
S'91'
p1523
sg11
g2
sg12
g2
sg13
g2
sg14
g2
sg15
g2
sg16
S'UCLA BRUINS - Baseball - UCLA Athletics'
p1524
sg18
S'33309'
p1525
sg20
S'528'
p1526
sg22
g2
sg23
S'26.1882019042969'
p1527
sg25
g2
sg26
S'Fort Lauderdale'
p1528
sg28
S'www.uclabruins.com'
p1529
sg30
g2
sg31
g2
sg32
S'baseball'
p1530
sg34
S'http://www.uclabruins.com/sports/m-basebl/ucla-m-basebl-body.html'
p1531
sg36
S'United States'
p1532
sg38
g2
sg39
S'-80.1710968017578'
p1533
sg41
S'Google'
p1534
sg43
g2
sg44
S'954'
p1535
sa(dp1536
g2
g2
sg3
S'208.80.154.225'
p1537
sg5
S'2013-01-29 14:49:35'
p1538
sg7
S'US'
p1539
sg9
S'92'
p1540
sg11
g2
sg12
g2
sg13
g2
sg14
g2
sg15
g2
sg16
S'Origins of baseball - Wikipedia, the free encyclopedia'
p1541
sg18
S'94105'
p1542
sg20
S'807'
p1543
sg22
g2
sg23
S'37.789794921875'
p1544
sg25
g2
sg26
S'San Francisco'
p1545
sg28
S'en.wikipedia.org'
p1546
sg30
g2
sg31
g2
sg32
S'baseball'
p1547
sg34
S'http://en.wikipedia.org/wiki/Origins_of_baseball'
p1548
sg36
S'United States'
p1549
sg38
g2
sg39
S'-122.394195556641'
p1550
sg41
S'Google'
p1551
sg43
g2
sg44
S'415'
p1552
sa(dp1553
g2
g2
sg3
S'128.135.13.200'
p1554
sg5
S'2013-01-29 14:49:35'
p1555
sg7
S'US'
p1556
sg9
S'93'
p1557
sg11
g2
sg12
g2
sg13
g2
sg14
g2
sg15
g2
sg16
S'University of Chicago Baseball'
p1558
sg18
S'60637'
p1559
sg20
S'602'
p1560
sg22
g2
sg23
S'41.7803955078125'
p1561
sg25
g2
sg26
S'Chicago'
p1562
sg28
S'athletics.uchicago.edu'
p1563
sg30
g2
sg31
g2
sg32
S'baseball'
p1564
sg34
S'http://athletics.uchicago.edu/baseball/bb.htm'
p1565
sg36
S'United States'
p1566
sg38
g2
sg39
S'-87.6026992797852'
p1567
sg41
S'Google'
p1568
sg43
g2
sg44
S'773'
p1569
sa(dp1570
g2
g2
sg3
S'64.30.230.20'
p1571
sg5
S'2013-01-29 14:49:35'
p1572
sg7
S'US'
p1573
sg9
S'94'
p1574
sg11
g2
sg12
g2
sg13
g2
sg14
g2
sg15
g2
sg16
S'Baylor Bears Official Athletic Site - BaylorBears.com Baseball ...'
p1575
sg18
S'33309'
p1576
sg20
S'528'
p1577
sg22
g2
sg23
S'26.1882019042969'
p1578
sg25
g2
sg26
S'Fort Lauderdale'
p1579
sg28
S'www.baylorbears.com'
p1580
sg30
g2
sg31
g2
sg32
S'baseball'
p1581
sg34
S'http://www.baylorbears.com/sports/m-basebl/'
p1582
sg36
S'United States'
p1583
sg38
g2
sg39
S'-80.1710968017578'
p1584
sg41
S'Google'
p1585
sg43
g2
sg44
S'954'
p1586
sa(dp1587
g2
g2
sg3
S'208.80.154.225'
p1588
sg5
S'2013-01-29 14:49:35'
p1589
sg7
S'US'
p1590
sg9
S'95'
p1591
sg11
g2
sg12
g2
sg13
g2
sg14
g2
sg15
g2
sg16
S'History of baseball in the United States - Wikipedia, the free ...'
p1592
sg18
S'94105'
p1593
sg20
S'807'
p1594
sg22
g2
sg23
S'37.789794921875'
p1595
sg25
g2
sg26
S'San Francisco'
p1596
sg28
S'en.wikipedia.org'
p1597
sg30
g2
sg31
g2
sg32
S'baseball'
p1598
sg34
S'http://en.wikipedia.org/wiki/History_of_baseball_in_the_United_States'
p1599
sg36
S'United States'
p1600
sg38
g2
sg39
S'-122.394195556641'
p1601
sg41
S'Google'
p1602
sg43
g2
sg44
S'415'
p1603
sa(dp1604
g2
g2
sg3
S'204.102.114.40'
p1605
sg5
S'2013-01-29 14:49:35'
p1606
sg7
S'US'
p1607
sg9
S'96'
p1608
sg11
g2
sg12
g2
sg13
g2
sg14
g2
sg15
g2
sg16
S'The Official Site of Minor League Baseball | Buffalo Bisons Homepage'
p1609
sg18
S'90802'
p1610
sg20
S'803'
p1611
sg22
g2
sg23
S'33.7541961669922'
p1612
sg25
g2
sg26
S'Long Beach'
p1613
sg28
S'www.milb.com'
p1614
sg30
g2
sg31
g2
sg32
S'baseball'
p1615
sg34
S'http://www.milb.com/index.jsp?sid=t422'
p1616
sg36
S'United States'
p1617
sg38
g2
sg39
S'-118.201904296875'
p1618
sg41
S'Google'
p1619
sg43
g2
sg44
S'562'
p1620
sa(dp1621
g2
g2
sg3
S'208.80.154.225'
p1622
sg5
S'2013-01-29 14:49:35'
p1623
sg7
S'US'
p1624
sg9
S'97'
p1625
sg11
g2
sg12
g2
sg13
g2
sg14
g2
sg15
g2
sg16
S'Baseball field - Wikipedia, the free encyclopedia'
p1626
sg18
S'94105'
p1627
sg20
S'807'
p1628
sg22
g2
sg23
S'37.789794921875'
p1629
sg25
g2
sg26
S'San Francisco'
p1630
sg28
S'en.wikipedia.org'
p1631
sg30
g2
sg31
g2
sg32
S'baseball'
p1632
sg34
S'http://en.wikipedia.org/wiki/Baseball_field'
p1633
sg36
S'United States'
p1634
sg38
g2
sg39
S'-122.394195556641'
p1635
sg41
S'Google'
p1636
sg43
g2
sg44
S'415'
p1637
sa(dp1638
g2
g2
sg3
S'68.71.212.152'
p1639
sg5
S'2013-01-29 14:49:35'
p1640
sg7
S'US'
p1641
sg9
S'98'
p1642
sg11
g2
sg12
g2
sg13
g2
sg14
g2
sg15
g2
sg16
S'No players elected to Baseball Hall of Fame by writers - ESPN'
p1643
sg18
g2
sg20
S'819'
p1644
sg22
g2
sg23
S'47.606201171875'
p1645
sg25
g2
sg26
S'Seattle'
p1646
sg28
S'espn.go.com'
p1647
sg30
g2
sg31
g2
sg32
S'baseball'
p1648
sg34
S'http://espn.go.com/mlb/story/_/id/8828339/no-players-elected-baseball-hall-fame-writers'
p1649
sg36
S'United States'
p1650
sg38
g2
sg39
S'-122.332099914551'
p1651
sg41
S'Google'
p1652
sg43
g2
sg44
S'206'
p1653
sa(dp1654
g2
g2
sg3
S'64.30.230.20'
p1655
sg5
S'2013-01-29 14:49:35'
p1656
sg7
S'US'
p1657
sg9
S'99'
p1658
sg11
g2
sg12
g2
sg13
g2
sg14
g2
sg15
g2
sg16
S"Stanford University's Official Athletic Site Baseball ... - GoStanford.com"
p1659
sg18
S'33309'
p1660
sg20
S'528'
p1661
sg22
g2
sg23
S'26.1882019042969'
p1662
sg25
g2
sg26
S'Fort Lauderdale'
p1663
sg28
S'www.gostanford.com'
p1664
sg30
g2
sg31
g2
sg32
S'baseball'
p1665
sg34
S'http://www.gostanford.com/sports/m-basebl/stan-m-basebl-body.html'
p1666
sg36
S'United States'
p1667
sg38
g2
sg39
S'-80.1710968017578'
p1668
sg41
S'Google'
p1669
sg43
g2
sg44
S'954'
p1670
sa(dp1671
g2
g2
sg3
S'64.30.230.20'
p1672
sg5
S'2013-01-29 14:49:35'
p1673
sg7
S'US'
p1674
sg9
S'100'
p1675
sg11
g2
sg12
g2
sg13
g2
sg14
g2
sg15
g2
sg16
S'Tiger Baseball - MUTIGERS.COM - The University of Missouri ...'
p1676
sg18
S'33309'
p1677
sg20
S'528'
p1678
sg22
g2
sg23
S'26.1882019042969'
p1679
sg25
g2
sg26
S'Fort Lauderdale'
p1680
sg28
S'www.mutigers.com'
p1681
sg30
g2
sg31
g2
sg32
S'baseball'
p1682
sg34
S'http://www.mutigers.com/sports/m-basebl/miss-m-basebl-body.html'
p1683
sg36
S'United States'
p1684
sg38
g2
sg39
S'-80.1710968017578'
p1685
sg41
S'Google'
p1686
sg43
g2
sg44
S'954'
p1687
sa.