(lp0
(dp1
S''
p2
g2
sS'ip'
p3
S'198.189.255.139'
p4
sS'search_date'
p5
S'2013-01-29 14:49:32'
p6
sS'rank'
p7
S'1'
p8
sS'currency_name'
p9
g2
sS'country_code'
p10
S'US'
p11
sS'timezone'
p12
g2
sS'continent'
p13
g2
sS'search_engine'
p14
S'Google'
p15
sS'datetimestamp'
p16
g2
sS'title'
p17
S'The Official Site of Major League Baseball | MLB.com: Homepage'
p18
sS'zipcode'
p19
S'90802'
p20
sS'dmacode'
p21
S'803'
p22
sS'state'
p23
g2
sS'latitude'
p24
S'33.7541961669922'
p25
sS'type'
p26
g2
sS'city'
p27
S'Long Beach'
p28
sS'area_code'
p29
S'562'
p30
sS'host'
p31
S'mlb.mlb.com'
p32
sS'nationality'
p33
g2
sS'placename'
p34
g2
sS'keyword'
p35
S'baseball'
p36
sS'url'
p37
S'http://mlb.mlb.com/'
p38
sS'country'
p39
S'United States'
p40
sS'isp'
p41
g2
sS'longitude'
p42
S'-118.201904296875'
p43
sS'organization'
p44
g2
sS'currency_code'
p45
g2
sa(dp46
g2
g2
sg3
S'208.80.154.225'
p47
sg5
S'2013-01-29 14:49:32'
p48
sg7
S'2'
p49
sS'currency_name'
p50
g2
sS'country_code'
p51
S'US'
p52
sg12
g2
sg13
g2
sS'search_engine'
p53
S'Google'
p54
sg16
g2
sg17
S'Baseball - Wikipedia, the free encyclopedia'
p55
sg19
S'94105'
p56
sg21
S'807'
p57
sg23
g2
sg24
S'37.789794921875'
p58
sg26
g2
sg27
S'San Francisco'
p59
sS'area_code'
p60
S'415'
p61
sg31
S'en.wikipedia.org'
p62
sg33
g2
sg34
g2
sg35
S'baseball'
p63
sg37
S'http://en.wikipedia.org/wiki/Baseball'
p64
sg39
S'United States'
p65
sg41
g2
sg42
S'-122.394195556641'
p66
sg44
g2
sS'currency_code'
p67
g2
sa(dp68
g2
g2
sg3
S'68.71.216.176'
p69
sg5
S'2013-01-29 14:49:32'
p70
sg7
S'3'
p71
sS'currency_name'
p72
g2
sS'country_code'
p73
S'US'
p74
sg12
g2
sg13
g2
sS'search_engine'
p75
S'Google'
p76
sg16
g2
sg17
S'MLB - Major League Baseball Teams, Scores, Stats, News ...'
p77
sg19
g2
sg21
S'819'
p78
sg23
g2
sg24
S'47.606201171875'
p79
sg26
g2
sg27
S'Seattle'
p80
sS'area_code'
p81
S'206'
p82
sg31
S'espn.go.com'
p83
sg33
g2
sg34
g2
sg35
S'baseball'
p84
sg37
S'http://espn.go.com/mlb/'
p85
sg39
S'United States'
p86
sg41
g2
sg42
S'-122.332099914551'
p87
sg44
g2
sS'currency_code'
p88
g2
sa(dp89
g2
g2
sg3
S'77.73.32.100'
p90
sg5
S'2013-01-29 14:49:32'
p91
sg7
S'4'
p92
sS'currency_name'
p93
g2
sS'country_code'
p94
S'CH'
p95
sg12
g2
sg13
g2
sS'search_engine'
p96
S'Google'
p97
sg16
g2
sg17
S'Baseball - Sports Games at Miniclip.com - Play Free Online Games'
p98
sg19
g2
sg21
S'0'
p99
sg23
g2
sg24
S'47'
p100
sg26
g2
sg27
g2
sS'area_code'
p101
g99
sg31
S'www.miniclip.com'
p102
sg33
g2
sg34
g2
sg35
S'baseball'
p103
sg37
S'http://www.miniclip.com/games/baseball/en/'
p104
sg39
S'Switzerland'
p105
sg41
g2
sg42
S'8'
p106
sg44
g2
sS'currency_code'
p107
g2
sa(dp108
g2
g2
sg3
S'66.35.36.81'
p109
sg5
S'2013-01-29 14:49:32'
p110
sg7
S'5'
p111
sS'currency_name'
p112
g2
sS'country_code'
p113
S'US'
p114
sg12
g2
sg13
g2
sS'search_engine'
p115
S'Google'
p116
sg16
g2
sg17
S'Baseball-Reference.com - Major League Baseball Statistics and ...'
p117
sg19
S'80525'
p118
sg21
S'751'
p119
sg23
g2
sg24
S'40.5195007324219'
p120
sg26
g2
sg27
S'Fort Collins'
p121
sS'area_code'
p122
S'970'
p123
sg31
S'www.baseball-reference.com'
p124
sg33
g2
sg34
g2
sg35
S'baseball'
p125
sg37
S'http://www.baseball-reference.com/'
p126
sg39
S'United States'
p127
sg41
g2
sg42
S'-105.062797546387'
p128
sg44
g2
sS'currency_code'
p129
g2
sa(dp130
g2
g2
sg3
S'149.48.228.121'
p131
sg5
S'2013-01-29 14:49:32'
p132
sg7
S'6'
p133
sS'currency_name'
p134
g2
sS'country_code'
p135
S'US'
p136
sg12
g2
sg13
g2
sS'search_engine'
p137
S'Google'
p138
sg16
g2
sg17
S'Baseball | PBS'
p139
sg19
S'22202'
p140
sg21
S'511'
p141
sg23
g2
sg24
S'38.8600006103516'
p142
sg26
g2
sg27
S'Arlington'
p143
sS'area_code'
p144
S'703'
p145
sg31
S'www.pbs.org'
p146
sg33
g2
sg34
g2
sg35
S'baseball'
p147
sg37
S'http://www.pbs.org/kenburns/baseball/'
p148
sg39
S'United States'
p149
sg41
g2
sg42
S'-77.0532989501953'
p150
sg44
g2
sS'currency_code'
p151
g2
sa(dp152
g2
g2
sg3
S'208.84.117.147'
p153
sg5
S'2013-01-29 14:49:32'
p154
sg7
S'7'
p155
sS'currency_name'
p156
g2
sS'country_code'
p157
S'US'
p158
sg12
g2
sg13
g2
sS'search_engine'
p159
S'Google'
p160
sg16
g2
sg17
S'Baseball Almanac'
p161
sg19
S'91311'
p162
sg21
S'803'
p163
sg23
g2
sg24
S'34.2868041992188'
p164
sg26
g2
sg27
S'Chatsworth'
p165
sS'area_code'
p166
S'818'
p167
sg31
S'www.baseball-almanac.com'
p168
sg33
g2
sg34
g2
sg35
S'baseball'
p169
sg37
S'http://www.baseball-almanac.com/'
p170
sg39
S'United States'
p171
sg41
g2
sg42
S'-118.613998413086'
p172
sg44
g2
sS'currency_code'
p173
g2
sa(dp174
g2
g2
sg3
S'107.20.157.11'
p175
sg5
S'2013-01-29 14:49:32'
p176
sg7
g106
sS'currency_name'
p177
g2
sS'country_code'
p178
S'US'
p179
sg12
g2
sg13
g2
sS'search_engine'
p180
S'Google'
p181
sg16
g2
sg17
S'Math Baseball - FunBrain.com'
p182
sg19
g2
sg21
S'511'
p183
sg23
g2
sg24
S'39.043701171875'
p184
sg26
g2
sg27
S'Ashburn'
p185
sS'area_code'
p186
S'703'
p187
sg31
S'www.funbrain.com'
p188
sg33
g2
sg34
g2
sg35
S'baseball'
p189
sg37
S'http://www.funbrain.com/math/'
p190
sg39
S'United States'
p191
sg41
g2
sg42
S'-77.4875030517578'
p192
sg44
g2
sS'currency_code'
p193
g2
sa(dp194
g2
g2
sg3
S'67.219.53.40'
p195
sg5
S'2013-01-29 14:49:32'
p196
sg7
S'9'
p197
sS'currency_name'
p198
g2
sS'country_code'
p199
S'US'
p200
sg12
g2
sg13
g2
sS'search_engine'
p201
S'Google'
p202
sg16
g2
sg17
S'Baseball Hall of Fame | Preserving History - Honoring Excellence ...'
p203
sg19
S'14534'
p204
sg21
S'538'
p205
sg23
g2
sg24
S'43.0906066894531'
p206
sg26
g2
sg27
S'Pittsford'
p207
sS'area_code'
p208
S'585'
p209
sg31
S'baseballhall.org'
p210
sg33
g2
sg34
g2
sg35
S'baseball'
p211
sg37
S'http://baseballhall.org/'
p212
sg39
S'United States'
p213
sg41
g2
sg42
S'-77.5149993896484'
p214
sg44
g2
sS'currency_code'
p215
g2
sa(dp216
g2
g2
sg3
S'209.237.226.248'
p217
sg5
S'2013-01-29 14:49:32'
p218
sg7
S'10'
p219
sS'currency_name'
p220
g2
sS'country_code'
p221
S'US'
p222
sg12
g2
sg13
g2
sS'search_engine'
p223
S'Google'
p224
sg16
g2
sg17
S'Science of Baseball | Exploratorium'
p225
sg19
S'94103'
p226
sg21
S'807'
p227
sg23
g2
sg24
S'37.7758026123047'
p228
sg26
g2
sg27
S'San Francisco'
p229
sS'area_code'
p230
S'415'
p231
sg31
S'www.exploratorium.edu'
p232
sg33
g2
sg34
g2
sg35
S'baseball'
p233
sg37
S'http://www.exploratorium.edu/baseball/'
p234
sg39
S'United States'
p235
sg41
g2
sg42
S'-122.412796020508'
p236
sg44
g2
sS'currency_code'
p237
g2
sa(dp238
g2
g2
sg3
S'204.102.114.41'
p239
sg5
S'2013-01-29 14:49:32'
p240
sg7
S'11'
p241
sS'currency_name'
p242
g2
sS'country_code'
p243
S'US'
p244
sg12
g2
sg13
g2
sS'search_engine'
p245
S'Google'
p246
sg16
g2
sg17
S'New York Yankees - Major League Baseball (MLB)'
p247
sg19
S'90802'
p248
sg21
S'803'
p249
sg23
g2
sg24
S'33.7541961669922'
p250
sg26
g2
sg27
S'Long Beach'
p251
sS'area_code'
p252
S'562'
p253
sg31
S'newyork.yankees.mlb.com'
p254
sg33
g2
sg34
g2
sg35
S'baseball'
p255
sg37
S'http://newyork.yankees.mlb.com/'
p256
sg39
S'United States'
p257
sg41
g2
sg42
S'-118.201904296875'
p258
sg44
g2
sS'currency_code'
p259
g2
sa(dp260
g2
g2
sg3
S'23.52.129.176'
p261
sg5
S'2013-01-29 14:49:32'
p262
sg7
S'12'
p263
sS'currency_name'
p264
g2
sS'country_code'
p265
S'US'
p266
sg12
g2
sg13
g2
sS'search_engine'
p267
S'Google'
p268
sg16
g2
sg17
S'Baseball Tickets at StubHub! MLB Baseball Tickets, NCAA Baseball ...'
p269
sg19
S'02142'
p270
sg21
S'506'
p271
sg23
g2
sg24
S'42.3625946044922'
p272
sg26
g2
sg27
S'Cambridge'
p273
sS'area_code'
p274
S'617'
p275
sg31
S'www.stubhub.com'
p276
sg33
g2
sg34
g2
sg35
S'baseball'
p277
sg37
S'http://www.stubhub.com/baseball-tickets/'
p278
sg39
S'United States'
p279
sg41
g2
sg42
S'-71.0842971801758'
p280
sg44
g2
sS'currency_code'
p281
g2
sa(dp282
g2
g2
sg3
S'198.189.255.146'
p283
sg5
S'2013-01-29 14:49:32'
p284
sg7
S'13'
p285
sS'currency_name'
p286
g2
sS'country_code'
p287
S'US'
p288
sg12
g2
sg13
g2
sS'search_engine'
p289
S'Google'
p290
sg16
g2
sg17
S'Boston Red Sox - Major League Baseball (MLB)'
p291
sg19
S'90802'
p292
sg21
S'803'
p293
sg23
g2
sg24
S'33.7541961669922'
p294
sg26
g2
sg27
S'Long Beach'
p295
sS'area_code'
p296
S'562'
p297
sg31
S'boston.redsox.mlb.com'
p298
sg33
g2
sg34
g2
sg35
S'baseball'
p299
sg37
S'http://boston.redsox.mlb.com/'
p300
sg39
S'United States'
p301
sg41
g2
sg42
S'-118.201904296875'
p302
sg44
g2
sS'currency_code'
p303
g2
sa(dp304
g2
g2
sg3
S'64.93.76.93'
p305
sg5
S'2013-01-29 14:49:32'
p306
sg7
S'14'
p307
sS'currency_name'
p308
g2
sS'country_code'
p309
S'US'
p310
sg12
g2
sg13
g2
sS'search_engine'
p311
S'Google'
p312
sg16
g2
sg17
S'Baseball America'
p313
sg19
S'90245'
p314
sg21
S'803'
p315
sg23
g2
sg24
S'33.9163970947266'
p316
sg26
g2
sg27
S'El Segundo'
p317
sS'area_code'
p318
S'310'
p319
sg31
S'www.baseballamerica.com'
p320
sg33
g2
sg34
g2
sg35
S'baseball'
p321
sg37
S'http://www.baseballamerica.com/'
p322
sg39
S'United States'
p323
sg41
g2
sg42
S'-118.404098510742'
p324
sg44
g2
sS'currency_code'
p325
g2
sa(dp326
g2
g2
sg3
S'209.160.28.89'
p327
sg5
S'2013-01-29 14:49:32'
p328
sg7
S'15'
p329
sS'currency_name'
p330
g2
sS'country_code'
p331
S'US'
p332
sg12
g2
sg13
g2
sS'search_engine'
p333
S'Google'
p334
sg16
g2
sg17
S'Baseball Prospectus'
p335
sg19
g2
sg21
g99
sg23
g2
sg24
S'38'
p336
sg26
g2
sg27
g2
sS'area_code'
p337
g99
sg31
S'www.baseballprospectus.com'
p338
sg33
g2
sg34
g2
sg35
S'baseball'
p339
sg37
S'http://www.baseballprospectus.com/'
p340
sg39
S'United States'
p341
sg41
g2
sg42
S'-97'
p342
sg44
g2
sS'currency_code'
p343
g2
sa(dp344
g2
g2
sg3
S'170.149.172.130'
p345
sg5
S'2013-01-29 14:49:32'
p346
sg7
S'16'
p347
sS'currency_name'
p348
g2
sS'country_code'
p349
S'US'
p350
sg12
g2
sg13
g2
sS'search_engine'
p351
S'Google'
p352
sg16
g2
sg17
S'Sports News - Major League Baseball - The New York Times'
p353
sg19
S'10018'
p354
sg21
S'501'
p355
sg23
g2
sg24
S'40.7552947998047'
p356
sg26
g2
sg27
S'New York'
p357
sS'area_code'
p358
S'212'
p359
sg31
S'www.nytimes.com'
p360
sg33
g2
sg34
g2
sg35
S'baseball'
p361
sg37
S'http://www.nytimes.com/pages/sports/baseball/index.html'
p362
sg39
S'United States'
p363
sg41
g2
sg42
S'-73.9924011230469'
p364
sg44
g2
sS'currency_code'
p365
g2
sa(dp366
g2
g2
sg3
S'208.80.154.225'
p367
sg5
S'2013-01-29 14:49:32'
p368
sg7
S'17'
p369
sS'currency_name'
p370
g2
sS'country_code'
p371
S'US'
p372
sg12
g2
sg13
g2
sS'search_engine'
p373
S'Google'
p374
sg16
g2
sg17
S'Baseball (TV series) - Wikipedia, the free encyclopedia'
p375
sg19
S'94105'
p376
sg21
S'807'
p377
sg23
g2
sg24
S'37.789794921875'
p378
sg26
g2
sg27
S'San Francisco'
p379
sS'area_code'
p380
S'415'
p381
sg31
S'en.wikipedia.org'
p382
sg33
g2
sg34
g2
sg35
S'baseball'
p383
sg37
S'http://en.wikipedia.org/wiki/Baseball_(TV_series)'
p384
sg39
S'United States'
p385
sg41
g2
sg42
S'-122.394195556641'
p386
sg44
g2
sS'currency_code'
p387
g2
sa(dp388
g2
g2
sg3
S'72.21.203.211'
p389
sg5
S'2013-01-29 14:49:32'
p390
sg7
S'18'
p391
sS'currency_name'
p392
g2
sS'country_code'
p393
S'US'
p394
sg12
g2
sg13
g2
sS'search_engine'
p395
S'Google'
p396
sg16
g2
sg17
S'Baseball (TV mini-series 1994\xe2\x80\x93 ) - IMDb'
p397
sg19
S'98104'
p398
sg21
S'819'
p399
sg23
g2
sg24
S'47.6026000976563'
p400
sg26
g2
sg27
S'Seattle'
p401
sS'area_code'
p402
S'206'
p403
sg31
S'www.imdb.com'
p404
sg33
g2
sg34
g2
sg35
S'baseball'
p405
sg37
S'http://www.imdb.com/title/tt0108700/'
p406
sg39
S'United States'
p407
sg41
g2
sg42
S'-122.328399658203'
p408
sg44
g2
sS'currency_code'
p409
g2
sa(dp410
g2
g2
sg3
S'12.130.102.52'
p411
sg5
S'2013-01-29 14:49:32'
p412
sg7
S'19'
p413
sS'currency_name'
p414
g2
sS'country_code'
p415
S'US'
p416
sg12
g2
sg13
g2
sS'search_engine'
p417
S'Google'
p418
sg16
g2
sg17
S'World Baseball Classic: Home'
p419
sg19
g2
sg21
g99
sg23
g2
sg24
S'38'
p420
sg26
g2
sg27
g2
sS'area_code'
p421
g99
sg31
S'www.worldbaseballclassic.com'
p422
sg33
g2
sg34
g2
sg35
S'baseball'
p423
sg37
S'http://www.worldbaseballclassic.com/'
p424
sg39
S'United States'
p425
sg41
g2
sg42
S'-97'
p426
sg44
g2
sS'currency_code'
p427
g2
sa(dp428
g2
g2
sg3
S'198.189.255.140'
p429
sg5
S'2013-01-29 14:49:32'
p430
sg7
S'20'
p431
sS'currency_name'
p432
g2
sS'country_code'
p433
S'US'
p434
sg12
g2
sg13
g2
sS'search_engine'
p435
S'Google'
p436
sg16
g2
sg17
S'USABaseball.com: The Official Site of USA Baseball: Home'
p437
sg19
S'90802'
p438
sg21
S'803'
p439
sg23
g2
sg24
S'33.7541961669922'
p440
sg26
g2
sg27
S'Long Beach'
p441
sS'area_code'
p442
S'562'
p443
sg31
S'web.usabaseball.com'
p444
sg33
g2
sg34
g2
sg35
S'baseball'
p445
sg37
S'http://web.usabaseball.com/'
p446
sg39
S'United States'
p447
sg41
g2
sg42
S'-118.201904296875'
p448
sg44
g2
sS'currency_code'
p449
g2
sa(dp450
g2
g2
sg3
S'199.59.149.230'
p451
sg5
S'2013-01-29 14:49:33'
p452
sg7
S'21'
p453
sS'currency_name'
p454
g2
sS'country_code'
p455
S'US'
p456
sg12
g2
sg13
g2
sS'search_engine'
p457
S'Google'
p458
sg16
g2
sg17
S'Twitter / Search - #baseball'
p459
sg19
S'94107'
p460
sg21
S'807'
p461
sg23
g2
sg24
S'37.7696990966797'
p462
sg26
g2
sg27
S'San Francisco'
p463
sS'area_code'
p464
S'415'
p465
sg31
S'twitter.com'
p466
sg33
g2
sg34
g2
sg35
S'baseball'
p467
sg37
S'https://twitter.com/search?q=%23baseball'
p468
sg39
S'United States'
p469
sg41
g2
sg42
S'-122.393295288086'
p470
sg44
g2
sS'currency_code'
p471
g2
sa(dp472
g2
g2
sg3
S'205.160.30.41'
p473
sg5
S'2013-01-29 14:49:33'
p474
sg7
S'22'
p475
sS'currency_name'
p476
g2
sS'country_code'
p477
S'US'
p478
sg12
g2
sg13
g2
sS'search_engine'
p479
S'Google'
p480
sg16
g2
sg17
S'2013 Major League Baseball Standings, Scores, Rumors - MLB ...'
p481
sg19
g2
sg21
g99
sg23
g2
sg24
S'38'
p482
sg26
g2
sg27
g2
sS'area_code'
p483
g99
sg31
S'aol.sportingnews.com'
p484
sg33
g2
sg34
g2
sg35
S'baseball'
p485
sg37
S'http://aol.sportingnews.com/mlb'
p486
sg39
S'United States'
p487
sg41
g2
sg42
S'-97'
p488
sg44
g2
sS'currency_code'
p489
g2
sa(dp490
g2
g2
sg3
S'204.102.114.56'
p491
sg5
S'2013-01-29 14:49:33'
p492
sg7
S'23'
p493
sS'currency_name'
p494
g2
sS'country_code'
p495
S'US'
p496
sg12
g2
sg13
g2
sS'search_engine'
p497
S'Google'
p498
sg16
g2
sg17
S'HowStuffWorks "How Baseball Works"'
p499
sg19
S'90802'
p500
sg21
S'803'
p501
sg23
g2
sg24
S'33.7541961669922'
p502
sg26
g2
sg27
S'Long Beach'
p503
sS'area_code'
p504
S'562'
p505
sg31
S'entertainment.howstuffworks.com'
p506
sg33
g2
sg34
g2
sg35
S'baseball'
p507
sg37
S'http://entertainment.howstuffworks.com/baseball.htm'
p508
sg39
S'United States'
p509
sg41
g2
sg42
S'-118.201904296875'
p510
sg44
g2
sS'currency_code'
p511
g2
sa(dp512
g2
g2
sg3
S'98.139.235.13'
p513
sg5
S'2013-01-29 14:49:33'
p514
sg7
S'24'
p515
sS'currency_name'
p516
g2
sS'country_code'
p517
S'US'
p518
sg12
g2
sg13
g2
sS'search_engine'
p519
S'Google'
p520
sg16
g2
sg17
S'Yahoo! Sports Fantasy Baseball'
p521
sg19
S'94089'
p522
sg21
S'807'
p523
sg23
g2
sg24
S'37.4248962402344'
p524
sg26
g2
sg27
S'Sunnyvale'
p525
sS'area_code'
p526
S'408'
p527
sg31
S'baseball.fantasysports.yahoo.com'
p528
sg33
g2
sg34
g2
sg35
S'baseball'
p529
sg37
S'http://baseball.fantasysports.yahoo.com/'
p530
sg39
S'United States'
p531
sg41
g2
sg42
S'-122.007400512695'
p532
sg44
g2
sS'currency_code'
p533
g2
sa(dp534
g2
g2
sg3
S'66.162.124.69'
p535
sg5
S'2013-01-29 14:49:33'
p536
sg7
S'25'
p537
sS'currency_name'
p538
g2
sS'country_code'
p539
S'US'
p540
sg12
g2
sg13
g2
sS'search_engine'
p541
S'Google'
p542
sg16
g2
sg17
S'American Legion Baseball | The American Legion'
p543
sg19
g2
sg21
S'527'
p544
sg23
g2
sg24
S'39.7684020996094'
p545
sg26
g2
sg27
S'Indianapolis'
p546
sS'area_code'
p547
S'317'
p548
sg31
S'www.legion.org'
p549
sg33
g2
sg34
g2
sg35
S'baseball'
p550
sg37
S'http://www.legion.org/baseball'
p551
sg39
S'United States'
p552
sg41
g2
sg42
S'-86.1579971313477'
p553
sg44
g2
sS'currency_code'
p554
g2
sa(dp555
g2
g2
sg3
S'67.228.1.18'
p556
sg5
S'2013-01-29 14:49:33'
p557
sg7
S'26'
p558
sS'currency_name'
p559
g2
sS'country_code'
p560
S'US'
p561
sg12
g2
sg13
g2
sS'search_engine'
p562
S'Google'
p563
sg16
g2
sg17
S"Batter's Up Baseball Math Game (Multiplication)"
p564
sg19
S'75244'
p565
sg21
S'623'
p566
sg23
g2
sg24
S'32.9299011230469'
p567
sg26
g2
sg27
S'Dallas'
p568
sS'area_code'
p569
S'972'
p570
sg31
S'www.prongo.com'
p571
sg33
g2
sg34
g2
sg35
S'baseball'
p572
sg37
S'http://www.prongo.com/math/multiplication.html'
p573
sg39
S'United States'
p574
sg41
g2
sg42
S'-96.8352966308594'
p575
sg44
g2
sS'currency_code'
p576
g2
sa(dp577
g2
g2
sg3
S'208.80.154.225'
p578
sg5
S'2013-01-29 14:49:33'
p579
sg7
S'27'
p580
sS'currency_name'
p581
g2
sS'country_code'
p582
S'US'
p583
sg12
g2
sg13
g2
sS'search_engine'
p584
S'Google'
p585
sg16
g2
sg17
S'Major League Baseball - Wikipedia, the free encyclopedia'
p586
sg19
S'94105'
p587
sg21
S'807'
p588
sg23
g2
sg24
S'37.789794921875'
p589
sg26
g2
sg27
S'San Francisco'
p590
sS'area_code'
p591
S'415'
p592
sg31
S'en.wikipedia.org'
p593
sg33
g2
sg34
g2
sg35
S'baseball'
p594
sg37
S'http://en.wikipedia.org/wiki/Major_League_Baseball'
p595
sg39
S'United States'
p596
sg41
g2
sg42
S'-122.394195556641'
p597
sg44
g2
sS'currency_code'
p598
g2
sa(dp599
g2
g2
sg3
S'157.166.255.237'
p600
sg5
S'2013-01-29 14:49:33'
p601
sg7
S'28'
p602
sS'currency_name'
p603
g2
sS'country_code'
p604
S'US'
p605
sg12
g2
sg13
g2
sS'search_engine'
p606
S'Google'
p607
sg16
g2
sg17
S'Baseball Division I - NCAA.com'
p608
sg19
S'30348'
p609
sg21
S'524'
p610
sg23
g2
sg24
S'33.7489929199219'
p611
sg26
g2
sg27
S'Atlanta'
p612
sS'area_code'
p613
S'678'
p614
sg31
S'www.ncaa.com'
p615
sg33
g2
sg34
g2
sg35
S'baseball'
p616
sg37
S'http://www.ncaa.com/sports/baseball/d1'
p617
sg39
S'United States'
p618
sg41
g2
sg42
S'-84.3880004882813'
p619
sg44
g2
sS'currency_code'
p620
g2
sa(dp621
g2
g2
sg3
S'64.30.230.20'
p622
sg5
S'2013-01-29 14:49:33'
p623
sg7
S'29'
p624
sS'currency_name'
p625
g2
sS'country_code'
p626
S'US'
p627
sg12
g2
sg13
g2
sS'search_engine'
p628
S'Google'
p629
sg16
g2
sg17
S'2012 Alabama Baseball Schedule - ALABAMA CRIMSON TIDE ...'
p630
sg19
S'33309'
p631
sg21
S'528'
p632
sg23
g2
sg24
S'26.1882019042969'
p633
sg26
g2
sg27
S'Fort Lauderdale'
p634
sS'area_code'
p635
S'954'
p636
sg31
S'www.rolltide.com'
p637
sg33
g2
sg34
g2
sg35
S'baseball'
p638
sg37
S'http://www.rolltide.com/sports/m-basebl/sched/alab-m-basebl-sched.html'
p639
sg39
S'United States'
p640
sg41
g2
sg42
S'-80.1710968017578'
p641
sg44
g2
sS'currency_code'
p642
g2
sa(dp643
g2
g2
sg3
S'68.71.212.157'
p644
sg5
S'2013-01-29 14:49:33'
p645
sg7
S'30'
p646
sS'currency_name'
p647
g2
sS'country_code'
p648
S'US'
p649
sg12
g2
sg13
g2
sS'search_engine'
p650
S'Google'
p651
sg16
g2
sg17
S'Fantasy Baseball - Free Fantasy Baseball Leagues, Rankings and ...'
p652
sg19
g2
sg21
S'819'
p653
sg23
g2
sg24
S'47.606201171875'
p654
sg26
g2
sg27
S'Seattle'
p655
sS'area_code'
p656
S'206'
p657
sg31
S'games.espn.go.com'
p658
sg33
g2
sg34
g2
sg35
S'baseball'
p659
sg37
S'http://games.espn.go.com/frontpage/baseball'
p660
sg39
S'United States'
p661
sg41
g2
sg42
S'-122.332099914551'
p662
sg44
g2
sS'currency_code'
p663
g2
sa(dp664
g2
g2
sg3
S'64.30.230.20'
p665
sg5
S'2013-01-29 14:49:33'
p666
sg7
S'31'
p667
sS'currency_name'
p668
g2
sS'country_code'
p669
S'US'
p670
sg12
g2
sg13
g2
sS'search_engine'
p671
S'Google'
p672
sg16
g2
sg17
S'FIGHTINGILLINI.COM - Baseball'
p673
sg19
S'33309'
p674
sg21
S'528'
p675
sg23
g2
sg24
S'26.1882019042969'
p676
sg26
g2
sg27
S'Fort Lauderdale'
p677
sS'area_code'
p678
S'954'
p679
sg31
S'www.fightingillini.com'
p680
sg33
g2
sg34
g2
sg35
S'baseball'
p681
sg37
S'http://www.fightingillini.com/sports/m-basebl/ill-m-basebl-body.html'
p682
sg39
S'United States'
p683
sg41
g2
sg42
S'-80.1710968017578'
p684
sg44
g2
sS'currency_code'
p685
g2
sa(dp686
g2
g2
sg3
S'204.102.114.40'
p687
sg5
S'2013-01-29 14:49:33'
p688
sg7
S'32'
p689
sS'currency_name'
p690
g2
sS'country_code'
p691
S'US'
p692
sg12
g2
sg13
g2
sS'search_engine'
p693
S'Google'
p694
sg16
g2
sg17
S'The Official Site of Minor League Baseball | Tennessee Smokies ...'
p695
sg19
S'90802'
p696
sg21
S'803'
p697
sg23
g2
sg24
S'33.7541961669922'
p698
sg26
g2
sg27
S'Long Beach'
p699
sS'area_code'
p700
S'562'
p701
sg31
S'www.milb.com'
p702
sg33
g2
sg34
g2
sg35
S'baseball'
p703
sg37
S'http://www.milb.com/index.jsp?sid=t553'
p704
sg39
S'United States'
p705
sg41
g2
sg42
S'-118.201904296875'
p706
sg44
g2
sS'currency_code'
p707
g2
sa(dp708
g2
g2
sg3
S'168.63.28.161'
p709
sg5
S'2013-01-29 14:49:33'
p710
sg7
S'33'
p711
sS'currency_name'
p712
g2
sS'country_code'
p713
S'US'
p714
sg12
g2
sg13
g2
sS'search_engine'
p715
S'Google'
p716
sg16
g2
sg17
S'The Official Site of the International Baseball Federation'
p717
sg19
g2
sg21
g99
sg23
g2
sg24
S'38'
p718
sg26
g2
sg27
g2
sS'area_code'
p719
g99
sg31
S'www.ibaf.org'
p720
sg33
g2
sg34
g2
sg35
S'baseball'
p721
sg37
S'http://www.ibaf.org/'
p722
sg39
S'United States'
p723
sg41
g2
sg42
S'-97'
p724
sg44
g2
sS'currency_code'
p725
g2
sa(dp726
g2
g2
sg3
S'176.32.98.166'
p727
sg5
S'2013-01-29 14:49:33'
p728
sg7
S'34'
p729
sS'currency_name'
p730
g2
sS'country_code'
p731
S'NL'
p732
sg12
g2
sg13
g2
sS'search_engine'
p733
S'Google'
p734
sg16
g2
sg17
S'Amazon.com: Baseball - A Film by Ken Burns: John Chancellor ...'
p735
sg19
g2
sg21
g99
sg23
g2
sg24
S'52.5'
p736
sg26
g2
sg27
g2
sS'area_code'
p737
g99
sg31
S'www.amazon.com'
p738
sg33
g2
sg34
g2
sg35
S'baseball'
p739
sg37
S'http://www.amazon.com/Baseball-A-Film-Ken-Burns/dp/0780630459'
p740
sg39
S'Netherlands'
p741
sg41
g2
sg42
S'5.75'
p742
sg44
g2
sS'currency_code'
p743
g2
sa(dp744
g2
g2
sg3
S'216.58.245.102'
p745
sg5
S'2013-01-29 14:49:33'
p746
sg7
S'35'
p747
sS'currency_name'
p748
g2
sS'country_code'
p749
S'US'
p750
sg12
g2
sg13
g2
sS'search_engine'
p751
S'Google'
p752
sg16
g2
sg17
S'Baseball - News - Huskers.com - Nebraska Athletics Official Web Site'
p753
sg19
S'68114'
p754
sg21
S'652'
p755
sg23
g2
sg24
S'41.2615051269531'
p756
sg26
g2
sg27
S'Omaha'
p757
sS'area_code'
p758
S'402'
p759
sg31
S'www.huskers.com'
p760
sg33
g2
sg34
g2
sg35
S'baseball'
p761
sg37
S'http://www.huskers.com/SportSelect.dbml?DB_OEM_ID=100&SPID=33&SPSID=101'
p762
sg39
S'United States'
p763
sg41
g2
sg42
S'-96.0526962280273'
p764
sg44
g2
sS'currency_code'
p765
g2
sa(dp766
g2
g2
sg3
S'176.32.98.166'
p767
sg5
S'2013-01-29 14:49:33'
p768
sg7
S'36'
p769
sS'currency_name'
p770
g2
sS'country_code'
p771
S'NL'
p772
sg12
g2
sg13
g2
sS'search_engine'
p773
S'Google'
p774
sg16
g2
sg17
S'Amazon.com: Baseball: A Film by Ken Burns (Includes The Tenth ...'
p775
sg19
g2
sg21
g99
sg23
g2
sg24
S'52.5'
p776
sg26
g2
sg27
g2
sS'area_code'
p777
g99
sg31
S'www.amazon.com'
p778
sg33
g2
sg34
g2
sg35
S'baseball'
p779
sg37
S'http://www.amazon.com/Baseball-Burns-Includes-Tenth-Inning/dp/B003S1UNZU'
p780
sg39
S'Netherlands'
p781
sg41
g2
sg42
S'5.75'
p782
sg44
g2
sS'currency_code'
p783
g2
sa(dp784
g2
g2
sg3
S'23.52.129.176'
p785
sg5
S'2013-01-29 14:49:33'
p786
sg7
S'37'
p787
sS'currency_name'
p788
g2
sS'country_code'
p789
S'US'
p790
sg12
g2
sg13
g2
sS'search_engine'
p791
S'Google'
p792
sg16
g2
sg17
S'MLB Tickets - MLB Baseball Tickets at StubHub!'
p793
sg19
S'02142'
p794
sg21
S'506'
p795
sg23
g2
sg24
S'42.3625946044922'
p796
sg26
g2
sg27
S'Cambridge'
p797
sS'area_code'
p798
S'617'
p799
sg31
S'www.stubhub.com'
p800
sg33
g2
sg34
g2
sg35
S'baseball'
p801
sg37
S'http://www.stubhub.com/mlb-tickets/'
p802
sg39
S'United States'
p803
sg41
g2
sg42
S'-71.0842971801758'
p804
sg44
g2
sS'currency_code'
p805
g2
sa(dp806
g2
g2
sg3
S'198.189.255.137'
p807
sg5
S'2013-01-29 14:49:33'
p808
sg7
S'38'
p809
sS'currency_name'
p810
g2
sS'country_code'
p811
S'US'
p812
sg12
g2
sg13
g2
sS'search_engine'
p813
S'Google'
p814
sg16
g2
sg17
S'Baseball - Gator Baseball - GatorZone.com'
p815
sg19
S'90802'
p816
sg21
S'803'
p817
sg23
g2
sg24
S'33.7541961669922'
p818
sg26
g2
sg27
S'Long Beach'
p819
sS'area_code'
p820
S'562'
p821
sg31
S'www.gatorzone.com'
p822
sg33
g2
sg34
g2
sg35
S'baseball'
p823
sg37
S'http://www.gatorzone.com/baseball/'
p824
sg39
S'United States'
p825
sg41
g2
sg42
S'-118.201904296875'
p826
sg44
g2
sS'currency_code'
p827
g2
sa(dp828
g2
g2
sg3
S'64.30.230.20'
p829
sg5
S'2013-01-29 14:49:33'
p830
sg7
S'39'
p831
sS'currency_name'
p832
g2
sS'country_code'
p833
S'US'
p834
sg12
g2
sg13
g2
sS'search_engine'
p835
S'Google'
p836
sg16
g2
sg17
S'Terp Baseball - Maryland Athletics - University of Maryland Official ...'
p837
sg19
S'33309'
p838
sg21
S'528'
p839
sg23
g2
sg24
S'26.1882019042969'
p840
sg26
g2
sg27
S'Fort Lauderdale'
p841
sS'area_code'
p842
S'954'
p843
sg31
S'www.umterps.com'
p844
sg33
g2
sg34
g2
sg35
S'baseball'
p845
sg37
S'http://www.umterps.com/sports/m-basebl/md-m-basebl-body.html'
p846
sg39
S'United States'
p847
sg41
g2
sg42
S'-80.1710968017578'
p848
sg44
g2
sS'currency_code'
p849
g2
sa(dp850
g2
g2
sg3
S'64.30.230.20'
p851
sg5
S'2013-01-29 14:49:33'
p852
sg7
S'40'
p853
sS'currency_name'
p854
g2
sS'country_code'
p855
S'US'
p856
sg12
g2
sg13
g2
sS'search_engine'
p857
S'Google'
p858
sg16
g2
sg17
S'Sooner Baseball - SoonerSports.com'
p859
sg19
S'33309'
p860
sg21
S'528'
p861
sg23
g2
sg24
S'26.1882019042969'
p862
sg26
g2
sg27
S'Fort Lauderdale'
p863
sS'area_code'
p864
S'954'
p865
sg31
S'www.soonersports.com'
p866
sg33
g2
sg34
g2
sg35
S'baseball'
p867
sg37
S'http://www.soonersports.com/sports/m-basebl/okla-m-basebl-body.html'
p868
sg39
S'United States'
p869
sg41
g2
sg42
S'-80.1710968017578'
p870
sg44
g2
sS'currency_code'
p871
g2
sa(dp872
g2
g2
sg3
S'174.35.3.8'
p873
sg5
S'2013-01-29 14:49:33'
p874
sg7
S'41'
p875
sS'currency_name'
p876
g2
sS'country_code'
p877
S'US'
p878
sg12
g2
sg13
g2
sS'search_engine'
p879
S'Google'
p880
sg16
g2
sg17
S'Baseball Games - Free online games at Agame.com'
p881
sg19
S'95134'
p882
sg21
S'807'
p883
sg23
g2
sg24
S'37.4250030517578'
p884
sg26
g2
sg27
S'San Jose'
p885
sS'area_code'
p886
S'408'
p887
sg31
S'www.agame.com'
p888
sg33
g2
sg34
g2
sg35
S'baseball'
p889
sg37
S'http://www.agame.com/games/baseball/baseball.html'
p890
sg39
S'United States'
p891
sg41
g2
sg42
S'-121.945999145508'
p892
sg44
g2
sS'currency_code'
p893
g2
sa(dp894
g2
g2
sg3
S'198.189.255.146'
p895
sg5
S'2013-01-29 14:49:33'
p896
sg7
S'42'
p897
sS'currency_name'
p898
g2
sS'country_code'
p899
S'US'
p900
sg12
g2
sg13
g2
sS'search_engine'
p901
S'Google'
p902
sg16
g2
sg17
S'Wilson. The Leader in Baseball Gloves, Baseballs and Equipment ...'
p903
sg19
S'90802'
p904
sg21
S'803'
p905
sg23
g2
sg24
S'33.7541961669922'
p906
sg26
g2
sg27
S'Long Beach'
p907
sS'area_code'
p908
S'562'
p909
sg31
S'www.wilson.com'
p910
sg33
g2
sg34
g2
sg35
S'baseball'
p911
sg37
S'http://www.wilson.com/en-us/baseball/'
p912
sg39
S'United States'
p913
sg41
g2
sg42
S'-118.201904296875'
p914
sg44
g2
sS'currency_code'
p915
g2
sa(dp916
g2
g2
sg3
S'64.30.230.20'
p917
sg5
S'2013-01-29 14:49:33'
p918
sg7
S'43'
p919
sS'currency_name'
p920
g2
sS'country_code'
p921
S'US'
p922
sg12
g2
sg13
g2
sS'search_engine'
p923
S'Google'
p924
sg16
g2
sg17
S'Husky Baseball - University of Washington Official Athletic Site ...'
p925
sg19
S'33309'
p926
sg21
S'528'
p927
sg23
g2
sg24
S'26.1882019042969'
p928
sg26
g2
sg27
S'Fort Lauderdale'
p929
sS'area_code'
p930
S'954'
p931
sg31
S'www.gohuskies.com'
p932
sg33
g2
sg34
g2
sg35
S'baseball'
p933
sg37
S'http://www.gohuskies.com/sports/m-basebl/wash-m-basebl-body.html'
p934
sg39
S'United States'
p935
sg41
g2
sg42
S'-80.1710968017578'
p936
sg44
g2
sS'currency_code'
p937
g2
sa(dp938
g2
g2
sg3
S'204.102.114.40'
p939
sg5
S'2013-01-29 14:49:33'
p940
sg7
S'44'
p941
sS'currency_name'
p942
g2
sS'country_code'
p943
S'US'
p944
sg12
g2
sg13
g2
sS'search_engine'
p945
S'Google'
p946
sg16
g2
sg17
S'The Official Site of Minor League Baseball | MiLB.com Homepage'
p947
sg19
S'90802'
p948
sg21
S'803'
p949
sg23
g2
sg24
S'33.7541961669922'
p950
sg26
g2
sg27
S'Long Beach'
p951
sS'area_code'
p952
S'562'
p953
sg31
S'www.milb.com'
p954
sg33
g2
sg34
g2
sg35
S'baseball'
p955
sg37
S'http://www.milb.com/'
p956
sg39
S'United States'
p957
sg41
g2
sg42
S'-118.201904296875'
p958
sg44
g2
sS'currency_code'
p959
g2
sa(dp960
g2
g2
sg3
S'206.190.61.107'
p961
sg5
S'2013-01-29 14:49:33'
p962
sg7
S'45'
p963
sS'currency_name'
p964
g2
sS'country_code'
p965
S'US'
p966
sg12
g2
sg13
g2
sS'search_engine'
p967
S'Google'
p968
sg16
g2
sg17
S'MLB on Yahoo! Sports - News, Scores, Standings, Rumors, Fantasy ...'
p969
sg19
S'94089'
p970
sg21
S'807'
p971
sg23
g2
sg24
S'37.4248962402344'
p972
sg26
g2
sg27
S'Sunnyvale'
p973
sS'area_code'
p974
S'408'
p975
sg31
S'sports.yahoo.com'
p976
sg33
g2
sg34
g2
sg35
S'baseball'
p977
sg37
S'http://sports.yahoo.com/mlb/'
p978
sg39
S'United States'
p979
sg41
g2
sg42
S'-122.007400512695'
p980
sg44
g2
sS'currency_code'
p981
g2
sa(dp982
g2
g2
sg3
S'128.173.121.40'
p983
sg5
S'2013-01-29 14:49:33'
p984
sg7
S'46'
p985
sS'currency_name'
p986
g2
sS'country_code'
p987
S'US'
p988
sg12
g2
sg13
g2
sS'search_engine'
p989
S'Google'
p990
sg16
g2
sg17
S'hokiesports.com :: Baseball'
p991
sg19
S'24061'
p992
sg21
S'573'
p993
sg23
g2
sg24
S'37.1790924072266'
p994
sg26
g2
sg27
S'Blacksburg'
p995
sS'area_code'
p996
S'540'
p997
sg31
S'www.hokiesports.com'
p998
sg33
g2
sg34
g2
sg35
S'baseball'
p999
sg37
S'http://www.hokiesports.com/baseball/'
p1000
sg39
S'United States'
p1001
sg41
g2
sg42
S'-80.3515014648438'
p1002
sg44
g2
sS'currency_code'
p1003
g2
sa(dp1004
g2
g2
sg3
S'198.189.255.139'
p1005
sg5
S'2013-01-29 14:49:33'
p1006
sg7
S'47'
p1007
sS'currency_name'
p1008
g2
sS'country_code'
p1009
S'US'
p1010
sg12
g2
sg13
g2
sS'search_engine'
p1011
S'Google'
p1012
sg16
g2
sg17
S'MLB.com/kids | MLB.com: Kids - MLB.com - Major League Baseball ...'
p1013
sg19
S'90802'
p1014
sg21
S'803'
p1015
sg23
g2
sg24
S'33.7541961669922'
p1016
sg26
g2
sg27
S'Long Beach'
p1017
sS'area_code'
p1018
S'562'
p1019
sg31
S'mlb.mlb.com'
p1020
sg33
g2
sg34
g2
sg35
S'baseball'
p1021
sg37
S'http://mlb.mlb.com/mlb/kids/index.jsp'
p1022
sg39
S'United States'
p1023
sg41
g2
sg42
S'-118.201904296875'
p1024
sg44
g2
sS'currency_code'
p1025
g2
sa(dp1026
g2
g2
sg3
S'64.30.230.20'
p1027
sg5
S'2013-01-29 14:49:33'
p1028
sg7
S'48'
p1029
sS'currency_name'
p1030
g2
sS'country_code'
p1031
S'US'
p1032
sg12
g2
sg13
g2
sS'search_engine'
p1033
S'Google'
p1034
sg16
g2
sg17
S'University of Southern California Official Athletic Site - Baseball'
p1035
sg19
S'33309'
p1036
sg21
S'528'
p1037
sg23
g2
sg24
S'26.1882019042969'
p1038
sg26
g2
sg27
S'Fort Lauderdale'
p1039
sS'area_code'
p1040
S'954'
p1041
sg31
S'www.usctrojans.com'
p1042
sg33
g2
sg34
g2
sg35
S'baseball'
p1043
sg37
S'http://www.usctrojans.com/sports/m-basebl/usc-m-basebl-body.html'
p1044
sg39
S'United States'
p1045
sg41
g2
sg42
S'-80.1710968017578'
p1046
sg44
g2
sS'currency_code'
p1047
g2
sa(dp1048
g2
g2
sg3
S'64.30.230.20'
p1049
sg5
S'2013-01-29 14:49:33'
p1050
sg7
S'49'
p1051
sS'currency_name'
p1052
g2
sS'country_code'
p1053
S'US'
p1054
sg12
g2
sg13
g2
sS'search_engine'
p1055
S'Google'
p1056
sg16
g2
sg17
S'Baseball - ALABAMA CRIMSON TIDE - University of Alabama ...'
p1057
sg19
S'33309'
p1058
sg21
S'528'
p1059
sg23
g2
sg24
S'26.1882019042969'
p1060
sg26
g2
sg27
S'Fort Lauderdale'
p1061
sS'area_code'
p1062
S'954'
p1063
sg31
S'www.rolltide.com'
p1064
sg33
g2
sg34
g2
sg35
S'baseball'
p1065
sg37
S'http://www.rolltide.com/sports/m-basebl/alab-m-basebl-body.html'
p1066
sg39
S'United States'
p1067
sg41
g2
sg42
S'-80.1710968017578'
p1068
sg44
g2
sS'currency_code'
p1069
g2
sa(dp1070
g2
g2
sg3
S'198.189.255.147'
p1071
sg5
S'2013-01-29 14:49:33'
p1072
sg7
S'50'
p1073
sS'currency_name'
p1074
g2
sS'country_code'
p1075
S'US'
p1076
sg12
g2
sg13
g2
sS'search_engine'
p1077
S'Google'
p1078
sg16
g2
sg17
S'St. Louis Cardinals - Major League Baseball (MLB)'
p1079
sg19
S'90802'
p1080
sg21
S'803'
p1081
sg23
g2
sg24
S'33.7541961669922'
p1082
sg26
g2
sg27
S'Long Beach'
p1083
sS'area_code'
p1084
S'562'
p1085
sg31
S'stlouis.cardinals.mlb.com'
p1086
sg33
g2
sg34
g2
sg35
S'baseball'
p1087
sg37
S'http://stlouis.cardinals.mlb.com/'
p1088
sg39
S'United States'
p1089
sg41
g2
sg42
S'-118.201904296875'
p1090
sg44
g2
sS'currency_code'
p1091
g2
sa(dp1092
g2
g2
sg3
S'64.30.230.20'
p1093
sg5
S'2013-01-29 14:49:34'
p1094
sg7
S'51'
p1095
sS'currency_name'
p1096
g2
sS'country_code'
p1097
S'US'
p1098
sg12
g2
sg13
g2
sS'search_engine'
p1099
S'Google'
p1100
sg16
g2
sg17
S'UTSPORTS.COM - University of Tennessee Athletics - Baseball'
p1101
sg19
S'33309'
p1102
sg21
S'528'
p1103
sg23
g2
sg24
S'26.1882019042969'
p1104
sg26
g2
sg27
S'Fort Lauderdale'
p1105
sS'area_code'
p1106
S'954'
p1107
sg31
S'www.utsports.com'
p1108
sg33
g2
sg34
g2
sg35
S'baseball'
p1109
sg37
S'http://www.utsports.com/sports/m-basebl/tenn-m-basebl-body.html'
p1110
sg39
S'United States'
p1111
sg41
g2
sg42
S'-80.1710968017578'
p1112
sg44
g2
sS'currency_code'
p1113
g2
sa(dp1114
g2
g2
sg3
S'216.178.47.11'
p1115
sg5
S'2013-01-29 14:49:34'
p1116
sg7
S'52'
p1117
sS'currency_name'
p1118
g2
sS'country_code'
p1119
S'US'
p1120
sg12
g2
sg13
g2
sS'search_engine'
p1121
S'Google'
p1122
sg16
g2
sg17
S'Baseball | Free Music, Tour Dates, Photos, Videos'
p1123
sg19
S'90210'
p1124
sg21
S'803'
p1125
sg23
g2
sg24
S'34.0995025634766'
p1126
sg26
g2
sg27
S'Beverly Hills'
p1127
sS'area_code'
p1128
S'310'
p1129
sg31
S'www.myspace.com'
p1130
sg33
g2
sg34
g2
sg35
S'baseball'
p1131
sg37
S'http://www.myspace.com/baseballtheband'
p1132
sg39
S'United States'
p1133
sg41
g2
sg42
S'-118.41429901123'
p1134
sg44
g2
sS'currency_code'
p1135
g2
sa(dp1136
g2
g2
sg3
S'64.30.230.20'
p1137
sg5
S'2013-01-29 14:49:34'
p1138
sg7
S'53'
p1139
sS'currency_name'
p1140
g2
sS'country_code'
p1141
S'US'
p1142
sg12
g2
sg13
g2
sS'search_engine'
p1143
S'Google'
p1144
sg16
g2
sg17
S'The Official Athletic Site of the Atlantic Coast Conference - Baseball'
p1145
sg19
S'33309'
p1146
sg21
S'528'
p1147
sg23
g2
sg24
S'26.1882019042969'
p1148
sg26
g2
sg27
S'Fort Lauderdale'
p1149
sS'area_code'
p1150
S'954'
p1151
sg31
S'www.theacc.com'
p1152
sg33
g2
sg34
g2
sg35
S'baseball'
p1153
sg37
S'http://www.theacc.com/sports/m-basebl/acc-m-basebl-body.html'
p1154
sg39
S'United States'
p1155
sg41
g2
sg42
S'-80.1710968017578'
p1156
sg44
g2
sS'currency_code'
p1157
g2
sa(dp1158
g2
g2
sg3
S'64.30.230.20'
p1159
sg5
S'2013-01-29 14:49:34'
p1160
sg7
S'54'
p1161
sS'currency_name'
p1162
g2
sS'country_code'
p1163
S'US'
p1164
sg12
g2
sg13
g2
sS'search_engine'
p1165
S'Google'
p1166
sg16
g2
sg17
S'Auburn Baseball - Auburn University Official Athletic Site'
p1167
sg19
S'33309'
p1168
sg21
S'528'
p1169
sg23
g2
sg24
S'26.1882019042969'
p1170
sg26
g2
sg27
S'Fort Lauderdale'
p1171
sS'area_code'
p1172
S'954'
p1173
sg31
S'www.auburntigers.com'
p1174
sg33
g2
sg34
g2
sg35
S'baseball'
p1175
sg37
S'http://www.auburntigers.com/sports/m-basebl/aub-m-basebl-body.html'
p1176
sg39
S'United States'
p1177
sg41
g2
sg42
S'-80.1710968017578'
p1178
sg44
g2
sS'currency_code'
p1179
g2
sa(dp1180
g2
g2
sg3
S'165.230.39.115'
p1181
sg5
S'2013-01-29 14:49:34'
p1182
sg7
S'55'
p1183
sS'currency_name'
p1184
g2
sS'country_code'
p1185
S'US'
p1186
sg12
g2
sg13
g2
sS'search_engine'
p1187
S'Google'
p1188
sg16
g2
sg17
S'The Official Site of Rutgers Baseball'
p1189
sg19
S'08854'
p1190
sg21
S'501'
p1191
sg23
g2
sg24
S'40.5516052246094'
p1192
sg26
g2
sg27
S'Piscataway'
p1193
sS'area_code'
p1194
S'732'
p1195
sg31
S'www.scarletknights.com'
p1196
sg33
g2
sg34
g2
sg35
S'baseball'
p1197
sg37
S'http://www.scarletknights.com/baseball/'
p1198
sg39
S'United States'
p1199
sg41
g2
sg42
S'-74.4636993408203'
p1200
sg44
g2
sS'currency_code'
p1201
g2
sa(dp1202
g2
g2
sg3
S'64.30.230.20'
p1203
sg5
S'2013-01-29 14:49:34'
p1204
sg7
S'56'
p1205
sS'currency_name'
p1206
g2
sS'country_code'
p1207
S'US'
p1208
sg12
g2
sg13
g2
sS'search_engine'
p1209
S'Google'
p1210
sg16
g2
sg17
S'Baseball - MGoBlue.com'
p1211
sg19
S'33309'
p1212
sg21
S'528'
p1213
sg23
g2
sg24
S'26.1882019042969'
p1214
sg26
g2
sg27
S'Fort Lauderdale'
p1215
sS'area_code'
p1216
S'954'
p1217
sg31
S'www.mgoblue.com'
p1218
sg33
g2
sg34
g2
sg35
S'baseball'
p1219
sg37
S'http://www.mgoblue.com/sports/m-basebl/mich-m-basebl-body.html'
p1220
sg39
S'United States'
p1221
sg41
g2
sg42
S'-80.1710968017578'
p1222
sg44
g2
sS'currency_code'
p1223
g2
sa(dp1224
g2
g2
sg3
S'208.80.154.225'
p1225
sg5
S'2013-01-29 14:49:34'
p1226
sg7
S'57'
p1227
sS'currency_name'
p1228
g2
sS'country_code'
p1229
S'US'
p1230
sg12
g2
sg13
g2
sS'search_engine'
p1231
S'Google'
p1232
sg16
g2
sg17
S'Baseball at the Summer Olympics - Wikipedia, the free encyclopedia'
p1233
sg19
S'94105'
p1234
sg21
S'807'
p1235
sg23
g2
sg24
S'37.789794921875'
p1236
sg26
g2
sg27
S'San Francisco'
p1237
sS'area_code'
p1238
S'415'
p1239
sg31
S'en.wikipedia.org'
p1240
sg33
g2
sg34
g2
sg35
S'baseball'
p1241
sg37
S'http://en.wikipedia.org/wiki/Baseball_at_the_Summer_Olympics'
p1242
sg39
S'United States'
p1243
sg41
g2
sg42
S'-122.394195556641'
p1244
sg44
g2
sS'currency_code'
p1245
g2
sa(dp1246
g2
g2
sg3
S'204.102.114.50'
p1247
sg5
S'2013-01-29 14:49:34'
p1248
sg7
S'58'
p1249
sS'currency_name'
p1250
g2
sS'country_code'
p1251
S'US'
p1252
sg12
g2
sg13
g2
sS'search_engine'
p1253
S'Google'
p1254
sg16
g2
sg17
S'Baseball Hall of Fame: Bonds, Clemens shut out - latimes.com'
p1255
sg19
S'90802'
p1256
sg21
S'803'
p1257
sg23
g2
sg24
S'33.7541961669922'
p1258
sg26
g2
sg27
S'Long Beach'
p1259
sS'area_code'
p1260
S'562'
p1261
sg31
S'www.latimes.com'
p1262
sg33
g2
sg34
g2
sg35
S'baseball'
p1263
sg37
S'http://www.latimes.com/sports/sportsnow/la-sp-sn-baseball-hall-of-fame-bonds-clemens-20130109,0,3974380.story'
p1264
sg39
S'United States'
p1265
sg41
g2
sg42
S'-118.201904296875'
p1266
sg44
g2
sS'currency_code'
p1267
g2
sa(dp1268
g2
g2
sg3
S'64.30.230.20'
p1269
sg5
S'2013-01-29 14:49:34'
p1270
sg7
S'59'
p1271
sS'currency_name'
p1272
g2
sS'country_code'
p1273
S'US'
p1274
sg12
g2
sg13
g2
sS'search_engine'
p1275
S'Google'
p1276
sg16
g2
sg17
S'Penn State Official Athletic Site - Baseball'
p1277
sg19
S'33309'
p1278
sg21
S'528'
p1279
sg23
g2
sg24
S'26.1882019042969'
p1280
sg26
g2
sg27
S'Fort Lauderdale'
p1281
sS'area_code'
p1282
S'954'
p1283
sg31
S'www.gopsusports.com'
p1284
sg33
g2
sg34
g2
sg35
S'baseball'
p1285
sg37
S'http://www.gopsusports.com/sports/m-basebl/psu-m-basebl-body.html'
p1286
sg39
S'United States'
p1287
sg41
g2
sg42
S'-80.1710968017578'
p1288
sg44
g2
sS'currency_code'
p1289
g2
sa(dp1290
g2
g2
sg3
S'208.113.227.91'
p1291
sg5
S'2013-01-29 14:49:34'
p1292
sg7
S'60'
p1293
sS'currency_name'
p1294
g2
sS'country_code'
p1295
S'US'
p1296
sg12
g2
sg13
g2
sS'search_engine'
p1297
S'Google'
p1298
sg16
g2
sg17
S'Sean Lahman | Database Journalist'
p1299
sg19
S'92821'
p1300
sg21
S'803'
p1301
sg23
g2
sg24
S'33.9268951416016'
p1302
sg26
g2
sg27
S'Brea'
p1303
sS'area_code'
p1304
S'714'
p1305
sg31
S'seanlahman.com'
p1306
sg33
g2
sg34
g2
sg35
S'baseball'
p1307
sg37
S'http://seanlahman.com/'
p1308
sg39
S'United States'
p1309
sg41
g2
sg42
S'-117.861198425293'
p1310
sg44
g2
sS'currency_code'
p1311
g2
sa(dp1312
g2
g2
sg3
S'174.35.3.16'
p1313
sg5
S'2013-01-29 14:49:34'
p1314
sg7
S'61'
p1315
sS'currency_name'
p1316
g2
sS'country_code'
p1317
S'US'
p1318
sg12
g2
sg13
g2
sS'search_engine'
p1319
S'Google'
p1320
sg16
g2
sg17
S'MSNBC Baseball - NBC Sports'
p1321
sg19
S'95134'
p1322
sg21
S'807'
p1323
sg23
g2
sg24
S'37.4250030517578'
p1324
sg26
g2
sg27
S'San Jose'
p1325
sS'area_code'
p1326
S'408'
p1327
sg31
S'nbcsports.msnbc.com'
p1328
sg33
g2
sg34
g2
sg35
S'baseball'
p1329
sg37
S'http://nbcsports.msnbc.com/id/3032825/'
p1330
sg39
S'United States'
p1331
sg41
g2
sg42
S'-121.945999145508'
p1332
sg44
g2
sS'currency_code'
p1333
g2
sa(dp1334
g2
g2
sg3
S'64.30.230.20'
p1335
sg5
S'2013-01-29 14:49:34'
p1336
sg7
S'62'
p1337
sS'currency_name'
p1338
g2
sS'country_code'
p1339
S'US'
p1340
sg12
g2
sg13
g2
sS'search_engine'
p1341
S'Google'
p1342
sg16
g2
sg17
S'Wildcat Baseball - NUSPORTS.COM - The Northwestern Official ...'
p1343
sg19
S'33309'
p1344
sg21
S'528'
p1345
sg23
g2
sg24
S'26.1882019042969'
p1346
sg26
g2
sg27
S'Fort Lauderdale'
p1347
sS'area_code'
p1348
S'954'
p1349
sg31
S'www.nusports.com'
p1350
sg33
g2
sg34
g2
sg35
S'baseball'
p1351
sg37
S'http://www.nusports.com/sports/m-basebl/nw-m-basebl-body.html'
p1352
sg39
S'United States'
p1353
sg41
g2
sg42
S'-80.1710968017578'
p1354
sg44
g2
sS'currency_code'
p1355
g2
sa(dp1356
g2
g2
sg3
S'205.160.30.8'
p1357
sg5
S'2013-01-29 14:49:34'
p1358
sg7
S'63'
p1359
sS'currency_name'
p1360
g2
sS'country_code'
p1361
S'US'
p1362
sg12
g2
sg13
g2
sS'search_engine'
p1363
S'Google'
p1364
sg16
g2
sg17
S'High School Baseball - MaxPreps'
p1365
sg19
g2
sg21
g99
sg23
g2
sg24
S'38'
p1366
sg26
g2
sg27
g2
sS'area_code'
p1367
g99
sg31
S'www.maxpreps.com'
p1368
sg33
g2
sg34
g2
sg35
S'baseball'
p1369
sg37
S'http://www.maxpreps.com/national/baseball.htm'
p1370
sg39
S'United States'
p1371
sg41
g2
sg42
S'-97'
p1372
sg44
g2
sS'currency_code'
p1373
g2
sa(dp1374
g2
g2
sg3
S'64.30.230.20'
p1375
sg5
S'2013-01-29 14:49:34'
p1376
sg7
S'64'
p1377
sS'currency_name'
p1378
g2
sS'country_code'
p1379
S'US'
p1380
sg12
g2
sg13
g2
sS'search_engine'
p1381
S'Google'
p1382
sg16
g2
sg17
S'University of Kansas Official Athletic Site - Baseball'
p1383
sg19
S'33309'
p1384
sg21
S'528'
p1385
sg23
g2
sg24
S'26.1882019042969'
p1386
sg26
g2
sg27
S'Fort Lauderdale'
p1387
sS'area_code'
p1388
S'954'
p1389
sg31
S'www.kuathletics.com'
p1390
sg33
g2
sg34
g2
sg35
S'baseball'
p1391
sg37
S'http://www.kuathletics.com/sports/m-basebl/kan-m-basebl-body.html'
p1392
sg39
S'United States'
p1393
sg41
g2
sg42
S'-80.1710968017578'
p1394
sg44
g2
sS'currency_code'
p1395
g2
sa(dp1396
g2
g2
sg3
S'204.102.114.40'
p1397
sg5
S'2013-01-29 14:49:34'
p1398
sg7
S'65'
p1399
sS'currency_name'
p1400
g2
sS'country_code'
p1401
S'US'
p1402
sg12
g2
sg13
g2
sS'search_engine'
p1403
S'Google'
p1404
sg16
g2
sg17
S'The Official Site of Minor League Baseball | West Michigan ...'
p1405
sg19
S'90802'
p1406
sg21
S'803'
p1407
sg23
g2
sg24
S'33.7541961669922'
p1408
sg26
g2
sg27
S'Long Beach'
p1409
sS'area_code'
p1410
S'562'
p1411
sg31
S'www.milb.com'
p1412
sg33
g2
sg34
g2
sg35
S'baseball'
p1413
sg37
S'http://www.milb.com/index.jsp?sid=t582'
p1414
sg39
S'United States'
p1415
sg41
g2
sg42
S'-118.201904296875'
p1416
sg44
g2
sS'currency_code'
p1417
g2
sa(dp1418
g2
g2
sg3
S'157.166.248.13'
p1419
sg5
S'2013-01-29 14:49:34'
p1420
sg7
S'66'
p1421
sS'currency_name'
p1422
g2
sS'country_code'
p1423
S'US'
p1424
sg12
g2
sg13
g2
sS'search_engine'
p1425
S'Google'
p1426
sg16
g2
sg17
S"Baseball great Stan 'The Man' Musial dies at 92 - CNN.com"
p1427
sg19
S'30348'
p1428
sg21
S'524'
p1429
sg23
g2
sg24
S'33.7489929199219'
p1430
sg26
g2
sg27
S'Atlanta'
p1431
sS'area_code'
p1432
S'678'
p1433
sg31
S'edition.cnn.com'
p1434
sg33
g2
sg34
g2
sg35
S'baseball'
p1435
sg37
S'http://edition.cnn.com/2013/01/19/sport/missouri-musial-obit/index.html'
p1436
sg39
S'United States'
p1437
sg41
g2
sg42
S'-84.3880004882813'
p1438
sg44
g2
sS'currency_code'
p1439
g2
sa(dp1440
g2
g2
sg3
S'170.149.172.130'
p1441
sg5
S'2013-01-29 14:49:34'
p1442
sg7
S'67'
p1443
sS'currency_name'
p1444
g2
sS'country_code'
p1445
S'US'
p1446
sg12
g2
sg13
g2
sS'search_engine'
p1447
S'Google'
p1448
sg16
g2
sg17
S'No Players Elected to Baseball Hall of Fame - NYTimes.com'
p1449
sg19
S'10018'
p1450
sg21
S'501'
p1451
sg23
g2
sg24
S'40.7552947998047'
p1452
sg26
g2
sg27
S'New York'
p1453
sS'area_code'
p1454
S'212'
p1455
sg31
S'www.nytimes.com'
p1456
sg33
g2
sg34
g2
sg35
S'baseball'
p1457
sg37
S'http://www.nytimes.com/2013/01/10/sports/baseball/no-players-elected-to-baseball-hall-of-fame.html?pagewanted=all'
p1458
sg39
S'United States'
p1459
sg41
g2
sg42
S'-73.9924011230469'
p1460
sg44
g2
sS'currency_code'
p1461
g2
sa(dp1462
g2
g2
sg3
S'216.58.245.102'
p1463
sg5
S'2013-01-29 14:49:34'
p1464
sg7
S'68'
p1465
sS'currency_name'
p1466
g2
sS'country_code'
p1467
S'US'
p1468
sg12
g2
sg13
g2
sS'search_engine'
p1469
S'Google'
p1470
sg16
g2
sg17
S'Baseball - News - Clemson Tigers Official Athletics Site'
p1471
sg19
S'68114'
p1472
sg21
S'652'
p1473
sg23
g2
sg24
S'41.2615051269531'
p1474
sg26
g2
sg27
S'Omaha'
p1475
sS'area_code'
p1476
S'402'
p1477
sg31
S'www.clemsontigers.com'
p1478
sg33
g2
sg34
g2
sg35
S'baseball'
p1479
sg37
S'http://www.clemsontigers.com/SportSelect.dbml?DB_OEM_ID=28500&SPID=103712&SPSID=657829'
p1480
sg39
S'United States'
p1481
sg41
g2
sg42
S'-96.0526962280273'
p1482
sg44
g2
sS'currency_code'
p1483
g2
sa(dp1484
g2
g2
sg3
S'72.21.215.232'
p1485
sg5
S'2013-01-29 14:49:34'
p1486
sg7
S'69'
p1487
sS'currency_name'
p1488
g2
sS'country_code'
p1489
S'US'
p1490
sg12
g2
sg13
g2
sS'search_engine'
p1491
S'Google'
p1492
sg16
g2
sg17
S'Amazon.com: Baseball - A Film By Ken Burns: Mamie Ruth Moberly ...'
p1493
sg19
S'98104'
p1494
sg21
S'819'
p1495
sg23
g2
sg24
S'47.6026000976563'
p1496
sg26
g2
sg27
S'Seattle'
p1497
sS'area_code'
p1498
S'206'
p1499
sg31
S'www.amazon.com'
p1500
sg33
g2
sg34
g2
sg35
S'baseball'
p1501
sg37
S'http://www.amazon.com/Baseball-Film-By-Ken-Burns/dp/B000BITUDO'
p1502
sg39
S'United States'
p1503
sg41
g2
sg42
S'-122.328399658203'
p1504
sg44
g2
sS'currency_code'
p1505
g2
sa(dp1506
g2
g2
sg3
S'216.58.245.102'
p1507
sg5
S'2013-01-29 14:49:34'
p1508
sg7
S'70'
p1509
sS'currency_name'
p1510
g2
sS'country_code'
p1511
S'US'
p1512
sg12
g2
sg13
g2
sS'search_engine'
p1513
S'Google'
p1514
sg16
g2
sg17
S'Baseball - News - University of North Carolina Tar Heels Official ...'
p1515
sg19
S'68114'
p1516
sg21
S'652'
p1517
sg23
g2
sg24
S'41.2615051269531'
p1518
sg26
g2
sg27
S'Omaha'
p1519
sS'area_code'
p1520
S'402'
p1521
sg31
S'www.goheels.com'
p1522
sg33
g2
sg34
g2
sg35
S'baseball'
p1523
sg37
S'http://www.goheels.com/SportSelect.dbml?DB_OEM_ID=3350&SPID=12960&SPSID=668152'
p1524
sg39
S'United States'
p1525
sg41
g2
sg42
S'-96.0526962280273'
p1526
sg44
g2
sS'currency_code'
p1527
g2
sa(dp1528
g2
g2
sg3
S'64.30.230.20'
p1529
sg5
S'2013-01-29 14:49:34'
p1530
sg7
S'71'
p1531
sS'currency_name'
p1532
g2
sS'country_code'
p1533
S'US'
p1534
sg12
g2
sg13
g2
sS'search_engine'
p1535
S'Google'
p1536
sg16
g2
sg17
S'Michigan State Official Athletic Site - Baseball'
p1537
sg19
S'33309'
p1538
sg21
S'528'
p1539
sg23
g2
sg24
S'26.1882019042969'
p1540
sg26
g2
sg27
S'Fort Lauderdale'
p1541
sS'area_code'
p1542
S'954'
p1543
sg31
S'www.msuspartans.com'
p1544
sg33
g2
sg34
g2
sg35
S'baseball'
p1545
sg37
S'http://www.msuspartans.com/sports/m-basebl/msu-m-basebl-body.html'
p1546
sg39
S'United States'
p1547
sg41
g2
sg42
S'-80.1710968017578'
p1548
sg44
g2
sS'currency_code'
p1549
g2
sa(dp1550
g2
g2
sg3
S'107.6.88.169'
p1551
sg5
S'2013-01-29 14:49:34'
p1552
sg7
S'72'
p1553
sS'currency_name'
p1554
g2
sS'country_code'
p1555
S'US'
p1556
sg12
g2
sg13
g2
sS'search_engine'
p1557
S'Google'
p1558
sg16
g2
sg17
S'Relativistic Baseball'
p1559
sg19
S'10006'
p1560
sg21
S'501'
p1561
sg23
g2
sg24
S'40.7082061767578'
p1562
sg26
g2
sg27
S'New York'
p1563
sS'area_code'
p1564
S'212'
p1565
sg31
S'what-if.xkcd.com'
p1566
sg33
g2
sg34
g2
sg35
S'baseball'
p1567
sg37
S'http://what-if.xkcd.com/1/'
p1568
sg39
S'United States'
p1569
sg41
g2
sg42
S'-74.0131988525391'
p1570
sg44
g2
sS'currency_code'
p1571
g2
sa(dp1572
g2
g2
sg3
S'205.160.30.40'
p1573
sg5
S'2013-01-29 14:49:34'
p1574
sg7
S'73'
p1575
sS'currency_name'
p1576
g2
sS'country_code'
p1577
S'US'
p1578
sg12
g2
sg13
g2
sS'search_engine'
p1579
S'Google'
p1580
sg16
g2
sg17
S'Baseball'
p1581
sg19
g2
sg21
g99
sg23
g2
sg24
S'38'
p1582
sg26
g2
sg27
g2
sS'area_code'
p1583
g99
sg31
S'www.reddit.com'
p1584
sg33
g2
sg34
g2
sg35
S'baseball'
p1585
sg37
S'http://www.reddit.com/r/baseball'
p1586
sg39
S'United States'
p1587
sg41
g2
sg42
S'-97'
p1588
sg44
g2
sS'currency_code'
p1589
g2
sa(dp1590
g2
g2
sg3
S'216.58.245.102'
p1591
sg5
S'2013-01-29 14:49:34'
p1592
sg7
S'74'
p1593
sS'currency_name'
p1594
g2
sS'country_code'
p1595
S'US'
p1596
sg12
g2
sg13
g2
sS'search_engine'
p1597
S'Google'
p1598
sg16
g2
sg17
S'Baseball - News - University of Miami Hurricanes Official Athletic Site'
p1599
sg19
S'68114'
p1600
sg21
S'652'
p1601
sg23
g2
sg24
S'41.2615051269531'
p1602
sg26
g2
sg27
S'Omaha'
p1603
sS'area_code'
p1604
S'402'
p1605
sg31
S'www.hurricanesports.com'
p1606
sg33
g2
sg34
g2
sg35
S'baseball'
p1607
sg37
S'http://www.hurricanesports.com/SportSelect.dbml?DB_OEM_ID=28700&SPID=103774&SPSID=658425'
p1608
sg39
S'United States'
p1609
sg41
g2
sg42
S'-96.0526962280273'
p1610
sg44
g2
sS'currency_code'
p1611
g2
sa(dp1612
g2
g2
sg3
S'208.64.111.142'
p1613
sg5
S'2013-01-29 14:49:34'
p1614
sg7
S'75'
p1615
sS'currency_name'
p1616
g2
sS'country_code'
p1617
S'US'
p1618
sg12
g2
sg13
g2
sS'search_engine'
p1619
S'Google'
p1620
sg16
g2
sg17
S'New York Baseball, Yankees, Mets, Stats, Photos and Stories ...'
p1621
sg19
S'07304'
p1622
sg21
S'501'
p1623
sg23
g2
sg24
S'40.7167053222656'
p1624
sg26
g2
sg27
S'Jersey City'
p1625
sS'area_code'
p1626
S'201'
p1627
sg31
S'www.nydailynews.com'
p1628
sg33
g2
sg34
g2
sg35
S'baseball'
p1629
sg37
S'http://www.nydailynews.com/sports/baseball'
p1630
sg39
S'United States'
p1631
sg41
g2
sg42
S'-74.0781021118164'
p1632
sg44
g2
sS'currency_code'
p1633
g2
sa(dp1634
g2
g2
sg3
S'204.102.114.41'
p1635
sg5
S'2013-01-29 14:49:34'
p1636
sg7
S'76'
p1637
sS'currency_name'
p1638
g2
sS'country_code'
p1639
S'US'
p1640
sg12
g2
sg13
g2
sS'search_engine'
p1641
S'Google'
p1642
sg16
g2
sg17
S'MLB Baseball Scores - MLB Scoreboard - ESPN'
p1643
sg19
S'90802'
p1644
sg21
S'803'
p1645
sg23
g2
sg24
S'33.7541961669922'
p1646
sg26
g2
sg27
S'Long Beach'
p1647
sS'area_code'
p1648
S'562'
p1649
sg31
S'scores.espn.go.com'
p1650
sg33
g2
sg34
g2
sg35
S'baseball'
p1651
sg37
S'http://scores.espn.go.com/mlb/scoreboard'
p1652
sg39
S'United States'
p1653
sg41
g2
sg42
S'-118.201904296875'
p1654
sg44
g2
sS'currency_code'
p1655
g2
sa(dp1656
g2
g2
sg3
S'208.80.154.225'
p1657
sg5
S'2013-01-29 14:49:34'
p1658
sg7
S'77'
p1659
sS'currency_name'
p1660
g2
sS'country_code'
p1661
S'US'
p1662
sg12
g2
sg13
g2
sS'search_engine'
p1663
S'Google'
p1664
sg16
g2
sg17
S'Baseball (ball) - Wikipedia, the free encyclopedia'
p1665
sg19
S'94105'
p1666
sg21
S'807'
p1667
sg23
g2
sg24
S'37.789794921875'
p1668
sg26
g2
sg27
S'San Francisco'
p1669
sS'area_code'
p1670
S'415'
p1671
sg31
S'en.wikipedia.org'
p1672
sg33
g2
sg34
g2
sg35
S'baseball'
p1673
sg37
S'http://en.wikipedia.org/wiki/Baseball_(ball)'
p1674
sg39
S'United States'
p1675
sg41
g2
sg42
S'-122.394195556641'
p1676
sg44
g2
sS'currency_code'
p1677
g2
sa(dp1678
g2
g2
sg3
S'64.30.230.20'
p1679
sg5
S'2013-01-29 14:49:34'
p1680
sg7
S'78'
p1681
sS'currency_name'
p1682
g2
sS'country_code'
p1683
S'US'
p1684
sg12
g2
sg13
g2
sS'search_engine'
p1685
S'Google'
p1686
sg16
g2
sg17
S'Baseball - Boston College Athletics'
p1687
sg19
S'33309'
p1688
sg21
S'528'
p1689
sg23
g2
sg24
S'26.1882019042969'
p1690
sg26
g2
sg27
S'Fort Lauderdale'
p1691
sS'area_code'
p1692
S'954'
p1693
sg31
S'www.bceagles.com'
p1694
sg33
g2
sg34
g2
sg35
S'baseball'
p1695
sg37
S'http://www.bceagles.com/sports/m-basebl/bc-m-basebl-body.html'
p1696
sg39
S'United States'
p1697
sg41
g2
sg42
S'-80.1710968017578'
p1698
sg44
g2
sS'currency_code'
p1699
g2
sa(dp1700
g2
g2
sg3
S'64.30.230.20'
p1701
sg5
S'2013-01-29 14:49:34'
p1702
sg7
S'79'
p1703
sS'currency_name'
p1704
g2
sS'country_code'
p1705
S'US'
p1706
sg12
g2
sg13
g2
sS'search_engine'
p1707
S'Google'
p1708
sg16
g2
sg17
S'UND.COM - University of Notre Dame Official Athletic Site - Baseball'
p1709
sg19
S'33309'
p1710
sg21
S'528'
p1711
sg23
g2
sg24
S'26.1882019042969'
p1712
sg26
g2
sg27
S'Fort Lauderdale'
p1713
sS'area_code'
p1714
S'954'
p1715
sg31
S'www.und.com'
p1716
sg33
g2
sg34
g2
sg35
S'baseball'
p1717
sg37
S'http://www.und.com/sports/m-basebl/nd-m-basebl-body.html'
p1718
sg39
S'United States'
p1719
sg41
g2
sg42
S'-80.1710968017578'
p1720
sg44
g2
sS'currency_code'
p1721
g2
sa(dp1722
g2
g2
sg3
S'216.58.245.102'
p1723
sg5
S'2013-01-29 14:49:34'
p1724
sg7
S'80'
p1725
sS'currency_name'
p1726
g2
sS'country_code'
p1727
S'US'
p1728
sg12
g2
sg13
g2
sS'search_engine'
p1729
S'Google'
p1730
sg16
g2
sg17
S'Baseball - News - GoDucks.com - The University of Oregon Official ...'
p1731
sg19
S'68114'
p1732
sg21
S'652'
p1733
sg23
g2
sg24
S'41.2615051269531'
p1734
sg26
g2
sg27
S'Omaha'
p1735
sS'area_code'
p1736
S'402'
p1737
sg31
S'www.goducks.com'
p1738
sg33
g2
sg34
g2
sg35
S'baseball'
p1739
sg37
S'http://www.goducks.com/SportSelect.dbml?DB_OEM_ID=500&SPID=11401&SPSID=94831'
p1740
sg39
S'United States'
p1741
sg41
g2
sg42
S'-96.0526962280273'
p1742
sg44
g2
sS'currency_code'
p1743
g2
sa(dp1744
g2
g2
sg3
S'64.30.230.20'
p1745
sg5
S'2013-01-29 14:49:35'
p1746
sg7
S'81'
p1747
sS'currency_name'
p1748
g2
sS'country_code'
p1749
S'US'
p1750
sg12
g2
sg13
g2
sS'search_engine'
p1751
S'Google'
p1752
sg16
g2
sg17
S'Baseball - Ohio State Buckeyes'
p1753
sg19
S'33309'
p1754
sg21
S'528'
p1755
sg23
g2
sg24
S'26.1882019042969'
p1756
sg26
g2
sg27
S'Fort Lauderdale'
p1757
sS'area_code'
p1758
S'954'
p1759
sg31
S'www.ohiostatebuckeyes.com'
p1760
sg33
g2
sg34
g2
sg35
S'baseball'
p1761
sg37
S'http://www.ohiostatebuckeyes.com/sports/m-basebl/osu-m-basebl-body.html'
p1762
sg39
S'United States'
p1763
sg41
g2
sg42
S'-80.1710968017578'
p1764
sg44
g2
sS'currency_code'
p1765
g2
sa(dp1766
g2
g2
sg3
S'64.30.230.20'
p1767
sg5
S'2013-01-29 14:49:35'
p1768
sg7
S'82'
p1769
sS'currency_name'
p1770
g2
sS'country_code'
p1771
S'US'
p1772
sg12
g2
sg13
g2
sS'search_engine'
p1773
S'Google'
p1774
sg16
g2
sg17
S'Schedule - East Carolina Official Athletic Site - Baseball'
p1775
sg19
S'33309'
p1776
sg21
S'528'
p1777
sg23
g2
sg24
S'26.1882019042969'
p1778
sg26
g2
sg27
S'Fort Lauderdale'
p1779
sS'area_code'
p1780
S'954'
p1781
sg31
S'www.ecupirates.com'
p1782
sg33
g2
sg34
g2
sg35
S'baseball'
p1783
sg37
S'http://www.ecupirates.com/sports/m-basebl/sched/ecu-m-basebl-sched.html'
p1784
sg39
S'United States'
p1785
sg41
g2
sg42
S'-80.1710968017578'
p1786
sg44
g2
sS'currency_code'
p1787
g2
sa(dp1788
g2
g2
sg3
S'64.30.230.20'
p1789
sg5
S'2013-01-29 14:49:35'
p1790
sg7
S'83'
p1791
sS'currency_name'
p1792
g2
sS'country_code'
p1793
S'US'
p1794
sg12
g2
sg13
g2
sS'search_engine'
p1795
S'Google'
p1796
sg16
g2
sg17
S'Arizona State University Official Athletic Site - Baseball'
p1797
sg19
S'33309'
p1798
sg21
S'528'
p1799
sg23
g2
sg24
S'26.1882019042969'
p1800
sg26
g2
sg27
S'Fort Lauderdale'
p1801
sS'area_code'
p1802
S'954'
p1803
sg31
S'www.thesundevils.com'
p1804
sg33
g2
sg34
g2
sg35
S'baseball'
p1805
sg37
S'http://www.thesundevils.com/sports/m-basebl/asu-m-basebl-body.html'
p1806
sg39
S'United States'
p1807
sg41
g2
sg42
S'-80.1710968017578'
p1808
sg44
g2
sS'currency_code'
p1809
g2
sa(dp1810
g2
g2
sg3
S'216.58.245.102'
p1811
sg5
S'2013-01-29 14:49:35'
p1812
sg7
S'84'
p1813
sS'currency_name'
p1814
g2
sS'country_code'
p1815
S'US'
p1816
sg12
g2
sg13
g2
sS'search_engine'
p1817
S'Google'
p1818
sg16
g2
sg17
S'Baseball - News - PennAthletics.com\xe2\x80\x94The Official Website of ...'
p1819
sg19
S'68114'
p1820
sg21
S'652'
p1821
sg23
g2
sg24
S'41.2615051269531'
p1822
sg26
g2
sg27
S'Omaha'
p1823
sS'area_code'
p1824
S'402'
p1825
sg31
S'www.pennathletics.com'
p1826
sg33
g2
sg34
g2
sg35
S'baseball'
p1827
sg37
S'http://www.pennathletics.com/SportSelect.dbml?DB_OEM_ID=1700&SPID=548&SPSID=8829'
p1828
sg39
S'United States'
p1829
sg41
g2
sg42
S'-96.0526962280273'
p1830
sg44
g2
sS'currency_code'
p1831
g2
sa(dp1832
g2
g2
sg3
S'74.125.224.174'
p1833
sg5
S'2013-01-29 14:49:35'
p1834
sg7
S'85'
p1835
sS'currency_name'
p1836
g2
sS'country_code'
p1837
S'US'
p1838
sg12
g2
sg13
g2
sS'search_engine'
p1839
S'Google'
p1840
sg16
g2
sg17
S'Baseball Player Fakes Hit, Ejected From Game - Foolass.COM ...'
p1841
sg19
S'94043'
p1842
sg21
S'807'
p1843
sg23
g2
sg24
S'37.4192047119141'
p1844
sg26
g2
sg27
S'Mountain View'
p1845
sS'area_code'
p1846
S'650'
p1847
sg31
S'www.youtube.com'
p1848
sg33
g2
sg34
g2
sg35
S'baseball'
p1849
sg37
S'http://www.youtube.com/watch?v=NyNZGm4gVH8'
p1850
sg39
S'United States'
p1851
sg41
g2
sg42
S'-122.057403564453'
p1852
sg44
g2
sS'currency_code'
p1853
g2
sa(dp1854
g2
g2
sg3
S'64.30.230.20'
p1855
sg5
S'2013-01-29 14:49:35'
p1856
sg7
S'86'
p1857
sS'currency_name'
p1858
g2
sS'country_code'
p1859
S'US'
p1860
sg12
g2
sg13
g2
sS'search_engine'
p1861
S'Google'
p1862
sg16
g2
sg17
S'Florida State University Official Athletic Site - Baseball'
p1863
sg19
S'33309'
p1864
sg21
S'528'
p1865
sg23
g2
sg24
S'26.1882019042969'
p1866
sg26
g2
sg27
S'Fort Lauderdale'
p1867
sS'area_code'
p1868
S'954'
p1869
sg31
S'www.seminoles.com'
p1870
sg33
g2
sg34
g2
sg35
S'baseball'
p1871
sg37
S'http://www.seminoles.com/sports/m-basebl/fsu-m-basebl-body.html'
p1872
sg39
S'United States'
p1873
sg41
g2
sg42
S'-80.1710968017578'
p1874
sg44
g2
sS'currency_code'
p1875
g2
sa(dp1876
g2
g2
sg3
S'208.80.154.225'
p1877
sg5
S'2013-01-29 14:49:35'
p1878
sg7
S'87'
p1879
sS'currency_name'
p1880
g2
sS'country_code'
p1881
S'US'
p1882
sg12
g2
sg13
g2
sS'search_engine'
p1883
S'Google'
p1884
sg16
g2
sg17
S'Baseball (drinking game) - Wikipedia, the free encyclopedia'
p1885
sg19
S'94105'
p1886
sg21
S'807'
p1887
sg23
g2
sg24
S'37.789794921875'
p1888
sg26
g2
sg27
S'San Francisco'
p1889
sS'area_code'
p1890
S'415'
p1891
sg31
S'en.wikipedia.org'
p1892
sg33
g2
sg34
g2
sg35
S'baseball'
p1893
sg37
S'http://en.wikipedia.org/wiki/Baseball_(drinking_game)'
p1894
sg39
S'United States'
p1895
sg41
g2
sg42
S'-122.394195556641'
p1896
sg44
g2
sS'currency_code'
p1897
g2
sa(dp1898
g2
g2
sg3
S'208.185.127.40'
p1899
sg5
S'2013-01-29 14:49:35'
p1900
sg7
S'88'
p1901
sS'currency_name'
p1902
g2
sS'country_code'
p1903
S'US'
p1904
sg12
g2
sg13
g2
sS'search_engine'
p1905
S'Google'
p1906
sg16
g2
sg17
S'History of Baseball - Alexander Cartwright'
p1907
sg19
S'10018'
p1908
sg21
S'501'
p1909
sg23
g2
sg24
S'40.7552947998047'
p1910
sg26
g2
sg27
S'New York'
p1911
sS'area_code'
p1912
S'212'
p1913
sg31
S'inventors.about.com'
p1914
sg33
g2
sg34
g2
sg35
S'baseball'
p1915
sg37
S'http://inventors.about.com/od/bstartinventions/a/Baseball.htm'
p1916
sg39
S'United States'
p1917
sg41
g2
sg42
S'-73.9924011230469'
p1918
sg44
g2
sS'currency_code'
p1919
g2
sa(dp1920
g2
g2
sg3
S'216.58.245.102'
p1921
sg5
S'2013-01-29 14:49:35'
p1922
sg7
S'89'
p1923
sS'currency_name'
p1924
g2
sS'country_code'
p1925
S'US'
p1926
sg12
g2
sg13
g2
sS'search_engine'
p1927
S'Google'
p1928
sg16
g2
sg17
S'Baseball - Baseball - Duke University Blue Devils | Official Athletics ...'
p1929
sg19
S'68114'
p1930
sg21
S'652'
p1931
sg23
g2
sg24
S'41.2615051269531'
p1932
sg26
g2
sg27
S'Omaha'
p1933
sS'area_code'
p1934
S'402'
p1935
sg31
S'www.goduke.com'
p1936
sg33
g2
sg34
g2
sg35
S'baseball'
p1937
sg37
S'http://www.goduke.com/SportSelect.dbml?DB_OEM_ID=4200&SPID=1850&SPSID=22847'
p1938
sg39
S'United States'
p1939
sg41
g2
sg42
S'-96.0526962280273'
p1940
sg44
g2
sS'currency_code'
p1941
g2
sa(dp1942
g2
g2
sg3
S'68.171.152.174'
p1943
sg5
S'2013-01-29 14:49:35'
p1944
sg7
S'90'
p1945
sS'currency_name'
p1946
g2
sS'country_code'
p1947
S'US'
p1948
sg12
g2
sg13
g2
sS'search_engine'
p1949
S'Google'
p1950
sg16
g2
sg17
S'Baseball'
p1951
sg19
S'01752'
p1952
sg21
S'506'
p1953
sg23
g2
sg24
S'42.3457946777344'
p1954
sg26
g2
sg27
S'Marlborough'
p1955
sS'area_code'
p1956
S'508'
p1957
sg31
S'pac-12.com'
p1958
sg33
g2
sg34
g2
sg35
S'baseball'
p1959
sg37
S'http://pac-12.com/Sports/Baseball.aspx'
p1960
sg39
S'United States'
p1961
sg41
g2
sg42
S'-71.5505981445313'
p1962
sg44
g2
sS'currency_code'
p1963
g2
sa(dp1964
g2
g2
sg3
S'64.30.230.20'
p1965
sg5
S'2013-01-29 14:49:35'
p1966
sg7
S'91'
p1967
sS'currency_name'
p1968
g2
sS'country_code'
p1969
S'US'
p1970
sg12
g2
sg13
g2
sS'search_engine'
p1971
S'Google'
p1972
sg16
g2
sg17
S'UCLA BRUINS - Baseball - UCLA Athletics'
p1973
sg19
S'33309'
p1974
sg21
S'528'
p1975
sg23
g2
sg24
S'26.1882019042969'
p1976
sg26
g2
sg27
S'Fort Lauderdale'
p1977
sS'area_code'
p1978
S'954'
p1979
sg31
S'www.uclabruins.com'
p1980
sg33
g2
sg34
g2
sg35
S'baseball'
p1981
sg37
S'http://www.uclabruins.com/sports/m-basebl/ucla-m-basebl-body.html'
p1982
sg39
S'United States'
p1983
sg41
g2
sg42
S'-80.1710968017578'
p1984
sg44
g2
sS'currency_code'
p1985
g2
sa(dp1986
g2
g2
sg3
S'208.80.154.225'
p1987
sg5
S'2013-01-29 14:49:35'
p1988
sg7
S'92'
p1989
sS'currency_name'
p1990
g2
sS'country_code'
p1991
S'US'
p1992
sg12
g2
sg13
g2
sS'search_engine'
p1993
S'Google'
p1994
sg16
g2
sg17
S'Origins of baseball - Wikipedia, the free encyclopedia'
p1995
sg19
S'94105'
p1996
sg21
S'807'
p1997
sg23
g2
sg24
S'37.789794921875'
p1998
sg26
g2
sg27
S'San Francisco'
p1999
sS'area_code'
p2000
S'415'
p2001
sg31
S'en.wikipedia.org'
p2002
sg33
g2
sg34
g2
sg35
S'baseball'
p2003
sg37
S'http://en.wikipedia.org/wiki/Origins_of_baseball'
p2004
sg39
S'United States'
p2005
sg41
g2
sg42
S'-122.394195556641'
p2006
sg44
g2
sS'currency_code'
p2007
g2
sa(dp2008
g2
g2
sg3
S'128.135.13.200'
p2009
sg5
S'2013-01-29 14:49:35'
p2010
sg7
S'93'
p2011
sS'currency_name'
p2012
g2
sS'country_code'
p2013
S'US'
p2014
sg12
g2
sg13
g2
sS'search_engine'
p2015
S'Google'
p2016
sg16
g2
sg17
S'University of Chicago Baseball'
p2017
sg19
S'60637'
p2018
sg21
S'602'
p2019
sg23
g2
sg24
S'41.7803955078125'
p2020
sg26
g2
sg27
S'Chicago'
p2021
sS'area_code'
p2022
S'773'
p2023
sg31
S'athletics.uchicago.edu'
p2024
sg33
g2
sg34
g2
sg35
S'baseball'
p2025
sg37
S'http://athletics.uchicago.edu/baseball/bb.htm'
p2026
sg39
S'United States'
p2027
sg41
g2
sg42
S'-87.6026992797852'
p2028
sg44
g2
sS'currency_code'
p2029
g2
sa(dp2030
g2
g2
sg3
S'64.30.230.20'
p2031
sg5
S'2013-01-29 14:49:35'
p2032
sg7
S'94'
p2033
sS'currency_name'
p2034
g2
sS'country_code'
p2035
S'US'
p2036
sg12
g2
sg13
g2
sS'search_engine'
p2037
S'Google'
p2038
sg16
g2
sg17
S'Baylor Bears Official Athletic Site - BaylorBears.com Baseball ...'
p2039
sg19
S'33309'
p2040
sg21
S'528'
p2041
sg23
g2
sg24
S'26.1882019042969'
p2042
sg26
g2
sg27
S'Fort Lauderdale'
p2043
sS'area_code'
p2044
S'954'
p2045
sg31
S'www.baylorbears.com'
p2046
sg33
g2
sg34
g2
sg35
S'baseball'
p2047
sg37
S'http://www.baylorbears.com/sports/m-basebl/'
p2048
sg39
S'United States'
p2049
sg41
g2
sg42
S'-80.1710968017578'
p2050
sg44
g2
sS'currency_code'
p2051
g2
sa(dp2052
g2
g2
sg3
S'208.80.154.225'
p2053
sg5
S'2013-01-29 14:49:35'
p2054
sg7
S'95'
p2055
sS'currency_name'
p2056
g2
sS'country_code'
p2057
S'US'
p2058
sg12
g2
sg13
g2
sS'search_engine'
p2059
S'Google'
p2060
sg16
g2
sg17
S'History of baseball in the United States - Wikipedia, the free ...'
p2061
sg19
S'94105'
p2062
sg21
S'807'
p2063
sg23
g2
sg24
S'37.789794921875'
p2064
sg26
g2
sg27
S'San Francisco'
p2065
sS'area_code'
p2066
S'415'
p2067
sg31
S'en.wikipedia.org'
p2068
sg33
g2
sg34
g2
sg35
S'baseball'
p2069
sg37
S'http://en.wikipedia.org/wiki/History_of_baseball_in_the_United_States'
p2070
sg39
S'United States'
p2071
sg41
g2
sg42
S'-122.394195556641'
p2072
sg44
g2
sS'currency_code'
p2073
g2
sa(dp2074
g2
g2
sg3
S'204.102.114.40'
p2075
sg5
S'2013-01-29 14:49:35'
p2076
sg7
S'96'
p2077
sS'currency_name'
p2078
g2
sS'country_code'
p2079
S'US'
p2080
sg12
g2
sg13
g2
sS'search_engine'
p2081
S'Google'
p2082
sg16
g2
sg17
S'The Official Site of Minor League Baseball | Buffalo Bisons Homepage'
p2083
sg19
S'90802'
p2084
sg21
S'803'
p2085
sg23
g2
sg24
S'33.7541961669922'
p2086
sg26
g2
sg27
S'Long Beach'
p2087
sS'area_code'
p2088
S'562'
p2089
sg31
S'www.milb.com'
p2090
sg33
g2
sg34
g2
sg35
S'baseball'
p2091
sg37
S'http://www.milb.com/index.jsp?sid=t422'
p2092
sg39
S'United States'
p2093
sg41
g2
sg42
S'-118.201904296875'
p2094
sg44
g2
sS'currency_code'
p2095
g2
sa(dp2096
g2
g2
sg3
S'208.80.154.225'
p2097
sg5
S'2013-01-29 14:49:35'
p2098
sg7
S'97'
p2099
sS'currency_name'
p2100
g2
sS'country_code'
p2101
S'US'
p2102
sg12
g2
sg13
g2
sS'search_engine'
p2103
S'Google'
p2104
sg16
g2
sg17
S'Baseball field - Wikipedia, the free encyclopedia'
p2105
sg19
S'94105'
p2106
sg21
S'807'
p2107
sg23
g2
sg24
S'37.789794921875'
p2108
sg26
g2
sg27
S'San Francisco'
p2109
sS'area_code'
p2110
S'415'
p2111
sg31
S'en.wikipedia.org'
p2112
sg33
g2
sg34
g2
sg35
S'baseball'
p2113
sg37
S'http://en.wikipedia.org/wiki/Baseball_field'
p2114
sg39
S'United States'
p2115
sg41
g2
sg42
S'-122.394195556641'
p2116
sg44
g2
sS'currency_code'
p2117
g2
sa(dp2118
g2
g2
sg3
S'68.71.212.152'
p2119
sg5
S'2013-01-29 14:49:35'
p2120
sg7
S'98'
p2121
sS'currency_name'
p2122
g2
sS'country_code'
p2123
S'US'
p2124
sg12
g2
sg13
g2
sS'search_engine'
p2125
S'Google'
p2126
sg16
g2
sg17
S'No players elected to Baseball Hall of Fame by writers - ESPN'
p2127
sg19
g2
sg21
S'819'
p2128
sg23
g2
sg24
S'47.606201171875'
p2129
sg26
g2
sg27
S'Seattle'
p2130
sS'area_code'
p2131
S'206'
p2132
sg31
S'espn.go.com'
p2133
sg33
g2
sg34
g2
sg35
S'baseball'
p2134
sg37
S'http://espn.go.com/mlb/story/_/id/8828339/no-players-elected-baseball-hall-fame-writers'
p2135
sg39
S'United States'
p2136
sg41
g2
sg42
S'-122.332099914551'
p2137
sg44
g2
sS'currency_code'
p2138
g2
sa(dp2139
g2
g2
sg3
S'64.30.230.20'
p2140
sg5
S'2013-01-29 14:49:35'
p2141
sg7
S'99'
p2142
sS'currency_name'
p2143
g2
sS'country_code'
p2144
S'US'
p2145
sg12
g2
sg13
g2
sS'search_engine'
p2146
S'Google'
p2147
sg16
g2
sg17
S"Stanford University's Official Athletic Site Baseball ... - GoStanford.com"
p2148
sg19
S'33309'
p2149
sg21
S'528'
p2150
sg23
g2
sg24
S'26.1882019042969'
p2151
sg26
g2
sg27
S'Fort Lauderdale'
p2152
sS'area_code'
p2153
S'954'
p2154
sg31
S'www.gostanford.com'
p2155
sg33
g2
sg34
g2
sg35
S'baseball'
p2156
sg37
S'http://www.gostanford.com/sports/m-basebl/stan-m-basebl-body.html'
p2157
sg39
S'United States'
p2158
sg41
g2
sg42
S'-80.1710968017578'
p2159
sg44
g2
sS'currency_code'
p2160
g2
sa(dp2161
g2
g2
sg3
S'64.30.230.20'
p2162
sg5
S'2013-01-29 14:49:35'
p2163
sg7
S'100'
p2164
sS'currency_name'
p2165
g2
sS'country_code'
p2166
S'US'
p2167
sg12
g2
sg13
g2
sS'search_engine'
p2168
S'Google'
p2169
sg16
g2
sg17
S'Tiger Baseball - MUTIGERS.COM - The University of Missouri ...'
p2170
sg19
S'33309'
p2171
sg21
S'528'
p2172
sg23
g2
sg24
S'26.1882019042969'
p2173
sg26
g2
sg27
S'Fort Lauderdale'
p2174
sS'area_code'
p2175
S'954'
p2176
sg31
S'www.mutigers.com'
p2177
sg33
g2
sg34
g2
sg35
S'baseball'
p2178
sg37
S'http://www.mutigers.com/sports/m-basebl/miss-m-basebl-body.html'
p2179
sg39
S'United States'
p2180
sg41
g2
sg42
S'-80.1710968017578'
p2181
sg44
g2
sS'currency_code'
p2182
g2
sa.