(lp0
(dp1
Vcity
p2
VSan Francisco
p3
sVname
p4
VCustomer  1
p5
sVzip
p6
V94131
p7
sVsales
p8
F131.08
sVstate
p9
VCA
p10
sVcust_id
p11
F1.0
sVlocation
p12
V100 Hamerton Ave San Francisco, CA 94131
p13
sVaddress
p14
V100 Hamerton Ave
p15
sVstore_id
p16
V2
p17
sa(dp18
g2
g3
sg4
VCustomer  10
p19
sg6
V94117
p20
sg8
F36.53
sg9
g10
sg11
F10.0
sg12
V1050 Page St San Francisco, CA 94117
p21
sg14
V1050 Page St
p22
sg16
V1
p23
sa(dp24
g2
g3
sg4
VCustomer  100
p25
sg6
V94121
p26
sg8
F192.06
sg9
g10
sg11
F100.0
sg12
V150 27th Ave San Francisco, CA 94121
p27
sg14
V150 27th Ave
p28
sg16
g23
sa(dp29
g2
g3
sg4
VCustomer  101
p30
sg6
V94110
p31
sg8
F12.18
sg9
g10
sg11
F101.0
sg12
V150 27th St San Francisco, CA 94110
p32
sg14
V150 27th St
p33
sg16
g17
sa(dp34
g2
g3
sg4
VCustomer  102
p35
sg6
g7
sg8
F79.1
sg9
g10
sg11
F102.0
sg12
V150 Acadia St San Francisco, CA 94131
p36
sg14
V150 Acadia St
p37
sg16
g17
sa(dp38
g2
g3
sg4
VCustomer  103
p39
sg6
V94134
p40
sg8
F178.0
sg9
g10
sg11
F103.0
sg12
V150 Arleta Ave San Francisco, CA 94134
p41
sg14
V150 Arleta Ave
p42
sg16
g17
sa(dp43
g2
g3
sg4
VCustomer  104
p44
sg6
g20
sg8
F19.8
sg9
g10
sg11
F104.0
sg12
V150 Ashbury St San Francisco, CA 94117
p45
sg14
V150 Ashbury St
p46
sg16
g23
sa(dp47
g2
g3
sg4
VCustomer  105
p48
sg6
V94112
p49
sg8
F25.15
sg9
g10
sg11
F105.0
sg12
V150 Bertita St San Francisco, CA 94112
p50
sg14
V150 Bertita St
p51
sg16
g17
sa(dp52
g2
g3
sg4
VCustomer  106
p53
sg6
g31
sg8
F155.03
sg9
g10
sg11
F106.0
sg12
V150 Bonview St San Francisco, CA 94110
p54
sg14
V150 Bonview St
p55
sg16
g17
sa.