(lp0
(dp1
Vcity
p2
VSan Francisco
p3
sVname
p4
VCustomer  1
p5
sVzip
p6
V94131
p7
sVsales
p8
F131.08
sVstate
p9
VCA
p10
sVcust_id
p11
F1.0
sVlocation
p12
V100 Hamerton Ave San Francisco, CA 94131
p13
sVaddress
p14
V100 Hamerton Ave
p15
sVstore_id
p16
V2
p17
sa(dp18
g2
g3
sg4
VCustomer  10
p19
sg6
V94117
p20
sg8
F36.53
sg9
g10
sg11
F10.0
sg12
V1050 Page St San Francisco, CA 94117
p21
sg14
V1050 Page St
p22
sg16
V1
p23
sa(dp24
g2
g3
sg4
VCustomer  100
p25
sg6
V94121
p26
sg8
F192.06
sg9
g10
sg11
F100.0
sg12
V150 27th Ave San Francisco, CA 94121
p27
sg14
V150 27th Ave
p28
sg16
g23
sa(dp29
g2
g3
sg4
VCustomer  101
p30
sg6
V94110
p31
sg8
F12.18
sg9
g10
sg11
F101.0
sg12
V150 27th St San Francisco, CA 94110
p32
sg14
V150 27th St
p33
sg16
g17
sa(dp34
g2
g3
sg4
VCustomer  102
p35
sg6
g7
sg8
F79.1
sg9
g10
sg11
F102.0
sg12
V150 Acadia St San Francisco, CA 94131
p36
sg14
V150 Acadia St
p37
sg16
g17
sa(dp38
g2
g3
sg4
VCustomer  103
p39
sg6
V94134
p40
sg8
F178.0
sg9
g10
sg11
F103.0
sg12
V150 Arleta Ave San Francisco, CA 94134
p41
sg14
V150 Arleta Ave
p42
sg16
g17
sa(dp43
g2
g3
sg4
VCustomer  104
p44
sg6
g20
sg8
F19.8
sg9
g10
sg11
F104.0
sg12
V150 Ashbury St San Francisco, CA 94117
p45
sg14
V150 Ashbury St
p46
sg16
g23
sa(dp47
g2
g3
sg4
VCustomer  105
p48
sg6
V94112
p49
sg8
F25.15
sg9
g10
sg11
F105.0
sg12
V150 Bertita St San Francisco, CA 94112
p50
sg14
V150 Bertita St
p51
sg16
g17
sa(dp52
g2
g3
sg4
VCustomer  106
p53
sg6
g31
sg8
F155.03
sg9
g10
sg11
F106.0
sg12
V150 Bonview St San Francisco, CA 94110
p54
sg14
V150 Bonview St
p55
sg16
g17
sa(dp56
g2
g3
sg4
VCustomer  107
p57
sg6
g49
sg8
F50.29
sg9
g10
sg11
F107.0
sg12
V150 Bosworth St San Francisco, CA 94112
p58
sg14
V150 Bosworth St
p59
sg16
g17
sa(dp60
g2
g3
sg4
VCustomer  108
p61
sg6
V94111
p62
sg8
F10.69
sg9
g10
sg11
F108.0
sg12
V150 California St San Francisco, CA 94111
p63
sg14
V150 California St
p64
sg16
g23
sa(dp65
g2
g3
sg4
VCustomer  109
p66
sg6
V94123
p67
sg8
F11.78
sg9
g10
sg11
F109.0
sg12
V150 Cervantes Blvd San Francisco, CA 94123
p68
sg14
V150 Cervantes Blvd
p69
sg16
g23
sa(dp70
g2
g3
sg4
VCustomer  11
p71
sg6
g31
sg8
F10.49
sg9
g10
sg11
F11.0
sg12
V108 Tiffany Ave San Francisco, CA 94110
p72
sg14
V108 Tiffany Ave
p73
sg16
g17
sa(dp74
g2
g3
sg4
VCustomer  110
p75
sg6
V94118
p76
sg8
F27.62
sg9
g10
sg11
F110.0
sg12
V150 Clement St San Francisco, CA 94118
p77
sg14
V150 Clement St
p78
sg16
g17
sa(dp79
g2
g3
sg4
VCustomer  111
p80
sg6
V94114
p81
sg8
F25.64
sg9
g10
sg11
F111.0
sg12
V150 Clipper St San Francisco, CA 94114
p82
sg14
V150 Clipper St
p83
sg16
g23
sa(dp84
g2
g3
sg4
VCustomer  112
p85
sg6
g76
sg8
F1.68
sg9
g10
sg11
F112.0
sg12
V150 Commonwealth Ave San Francisco, CA 94118
p86
sg14
V150 Commonwealth Ave
p87
sg16
g23
sa(dp88
g2
g3
sg4
VCustomer  113
p89
sg6
g49
sg8
F27.72
sg9
g10
sg11
F113.0
sg12
V150 Cotter St San Francisco, CA 94112
p90
sg14
V150 Cotter St
p91
sg16
g17
sa(dp92
g2
g3
sg4
VCustomer  114
p93
sg6
g40
sg8
F25.34
sg9
g10
sg11
F114.0
sg12
V150 Dartmouth St San Francisco, CA 94134
p94
sg14
V150 Dartmouth St
p95
sg16
g17
sa(dp96
g2
g3
sg4
VCustomer  115
p97
sg6
g49
sg8
F28.91
sg9
g10
sg11
F115.0
sg12
V150 Delano Ave San Francisco, CA 94112
p98
sg14
V150 Delano Ave
p99
sg16
g17
sa(dp100
g2
g3
sg4
VCustomer  116
p101
sg6
g49
sg8
F174.93
sg9
g10
sg11
F116.0
sg12
V150 Edinburgh St San Francisco, CA 94112
p102
sg14
V150 Edinburgh St
p103
sg16
g17
sa(dp104
g2
g3
sg4
VCustomer  117
p105
sg6
g49
sg8
F111.08
sg9
g10
sg11
F117.0
sg12
V150 Farallones St San Francisco, CA 94112
p106
sg14
V150 Farallones St
p107
sg16
g23
sa(dp108
g2
g3
sg4
VCustomer  118
p109
sg6
g7
sg8
F103.46
sg9
g10
sg11
F118.0
sg12
V150 Flood Ave San Francisco, CA 94131
p110
sg14
V150 Flood Ave
p111
sg16
g17
sa(dp112
g2
g3
sg4
VCustomer  119
p113
sg6
V94127
p114
sg8
F27.52
sg9
g10
sg11
F119.0
sg12
V150 Forest Side Ave San Francisco, CA 94127
p115
sg14
V150 Forest Side Ave
p116
sg16
g17
sa(dp117
g2
g3
sg4
VCustomer  12
p118
sg6
V94115
p119
sg8
F100.09
sg9
g10
sg11
F12.0
sg12
V11 Western Shore Ln San Francisco, CA 94115
p120
sg14
V11 Western Shore Ln
p121
sg16
g23
sa(dp122
g2
g3
sg4
VCustomer  120
p123
sg6
g49
sg8
F171.96
sg9
g10
sg11
F120.0
sg12
V150 France Ave San Francisco, CA 94112
p124
sg14
V150 France Ave
p125
sg16
g17
sa(dp126
g2
g3
sg4
VCustomer  121
p127
sg6
V94102
p128
sg8
F13.96
sg9
g10
sg11
F121.0
sg12
V150 Hayes St San Francisco, CA 94102
p129
sg14
V150 Hayes St
p130
sg16
g23
sa(dp131
g2
g3
sg4
VCustomer  122
p132
sg6
g49
sg8
F41.48
sg9
g10
sg11
F122.0
sg12
V150 Italy Ave San Francisco, CA 94112
p133
sg14
V150 Italy Ave
p134
sg16
g17
sa(dp135
g2
g3
sg4
VCustomer  123
p136
sg6
g7
sg8
F57.91
sg9
g10
sg11
F123.0
sg12
V150 Joost Ave San Francisco, CA 94131
p137
sg14
V150 Joost Ave
p138
sg16
g17
sa(dp139
g2
g3
sg4
VCustomer  124
p140
sg6
g76
sg8
F196.12
sg9
g10
sg11
F124.0
sg12
V150 Jordan Ave San Francisco, CA 94118
p141
sg14
V150 Jordan Ave
p142
sg16
g23
sa(dp143
g2
g3
sg4
VCustomer  125
p144
sg6
g31
sg8
F35.54
sg9
g10
sg11
F125.0
sg12
V150 Kingston St San Francisco, CA 94110
p145
sg14
V150 Kingston St
p146
sg16
g17
sa(dp147
g2
g3
sg4
VCustomer  126
p148
sg6
g7
sg8
F28.31
sg9
g10
sg11
F126.0
sg12
V150 Lippard Ave San Francisco, CA 94131
p149
sg14
V150 Lippard Ave
p150
sg16
g17
sa(dp151
g2
g3
sg4
VCustomer  127
p152
sg6
g114
sg8
F115.04
sg9
g10
sg11
F127.0
sg12
V150 Marietta Dr San Francisco, CA 94127
p153
sg14
V150 Marietta Dr
p154
sg16
g17
sa(dp155
g2
g3
sg4
VCustomer  128
p156
sg6
g128
sg8
F19.21
sg9
g10
sg11
F128.0
sg12
V150 Mason St San Francisco, CA 94102
p157
sg14
V150 Mason St
p158
sg16
g23
sa(dp159
g2
g3
sg4
VCustomer  129
p160
sg6
g76
sg8
F49.3
sg9
g10
sg11
F129.0
sg12
V150 Masonic Ave San Francisco, CA 94118
p161
sg14
V150 Masonic Ave
p162
sg16
g23
sa(dp163
g2
g3
sg4
VCustomer  13
p164
sg6
V94109
p165
sg8
F56.63
sg9
g10
sg11
F13.0
sg12
V1100 Eddy St San Francisco, CA 94109
p166
sg14
V1100 Eddy St
p167
sg16
g23
sa(dp168
g2
g3
sg4
VCustomer  130
p169
sg6
g7
sg8
F183.94
sg9
g10
sg11
F130.0
sg12
V150 Miguel St San Francisco, CA 94131
p170
sg14
V150 Miguel St
p171
sg16
g17
sa(dp172
g2
g3
sg4
VCustomer  131
p173
sg6
g7
sg8
F95.34
sg9
g10
sg11
F131.0
sg12
V150 Monterey Blvd San Francisco, CA 94131
p174
sg14
V150 Monterey Blvd
p175
sg16
g17
sa(dp176
g2
g3
sg4
VCustomer  132
p177
sg6
g49
sg8
F146.52
sg9
g10
sg11
F132.0
sg12
V150 Ney St San Francisco, CA 94112
p178
sg14
V150 Ney St
p179
sg16
g17
sa(dp180
g2
g3
sg4
VCustomer  133
p181
sg6
g49
sg8
F118.3
sg9
g10
sg11
F133.0
sg12
V150 Otsego Ave San Francisco, CA 94112
p182
sg14
V150 Otsego Ave
p183
sg16
g17
sa(dp184
g2
g3
sg4
VCustomer  134
p185
sg6
g49
sg8
F98.9
sg9
g10
sg11
F134.0
sg12
V150 Paris St San Francisco, CA 94112
p186
sg14
V150 Paris St
p187
sg16
g17
sa(dp188
g2
g3
sg4
VCustomer  135
p189
sg6
g31
sg8
F150.38
sg9
g10
sg11
F135.0
sg12
V150 Park St San Francisco, CA 94110
p190
sg14
V150 Park St
p191
sg16
g17
sa(dp192
g2
g3
sg4
VCustomer  136
p193
sg6
g76
sg8
F4.26
sg9
g10
sg11
F136.0
sg12
V150 Parker Ave San Francisco, CA 94118
p194
sg14
V150 Parker Ave
p195
sg16
g23
sa(dp196
g2
g3
sg4
VCustomer  137
p197
sg6
g67
sg8
F2.87
sg9
g10
sg11
F137.0
sg12
V150 Richardson Ave San Francisco, CA 94123
p198
sg14
V150 Richardson Ave
p199
sg16
g23
sa(dp200
g2
g3
sg4
VCustomer  138
p201
sg6
g114
sg8
F147.21
sg9
g10
sg11
F138.0
sg12
V150 Robinhood Dr San Francisco, CA 94127
p202
sg14
V150 Robinhood Dr
p203
sg16
g17
sa(dp204
g2
g3
sg4
VCustomer  139
p205
sg6
g7
sg8
F109.1
sg9
g10
sg11
F139.0
sg12
V150 Surrey St San Francisco, CA 94131
p206
sg14
V150 Surrey St
p207
sg16
g17
sa(dp208
g2
g3
sg4
VCustomer  14
p209
sg6
g81
sg8
F48.41
sg9
g10
sg11
F14.0
sg12
V1126 Church St San Francisco, CA 94114
p210
sg14
V1126 Church St
p211
sg16
g17
sa(dp212
g2
g3
sg4
VCustomer  140
p213
sg6
g40
sg8
F166.91
sg9
g10
sg11
F140.0
sg12
V150 Sweeny St San Francisco, CA 94134
p214
sg14
V150 Sweeny St
p215
sg16
g17
sa(dp216
g2
g3
sg4
VCustomer  141
p217
sg6
g7
sg8
F62.77
sg9
g10
sg11
F141.0
sg12
V150 Swiss Ave San Francisco, CA 94131
p218
sg14
V150 Swiss Ave
p219
sg16
g17
sa(dp220
g2
g3
sg4
VCustomer  142
p221
sg6
g49
sg8
F170.78
sg9
g10
sg11
F142.0
sg12
V150 Trumbull St San Francisco, CA 94112
p222
sg14
V150 Trumbull St
p223
sg16
g17
sa(dp224
g2
g3
sg4
VCustomer  143
p225
sg6
V94132
p226
sg8
F152.76
sg9
g10
sg11
F143.0
sg12
V150 Vernon St San Francisco, CA 94132
p227
sg14
V150 Vernon St
p228
sg16
g17
sa(dp229
g2
g3
sg4
VCustomer  144
p230
sg6
g226
sg8
F112.76
sg9
g10
sg11
F144.0
sg12
V150 Victoria St San Francisco, CA 94132
p231
sg14
V150 Victoria St
p232
sg16
g17
sa(dp233
g2
g3
sg4
VCustomer  145
p234
sg6
g49
sg8
F117.22
sg9
g10
sg11
F145.0
sg12
V150 Vienna St San Francisco, CA 94112
p235
sg14
V150 Vienna St
p236
sg16
g17
sa(dp237
g2
g3
sg4
VCustomer  146
p238
sg6
g76
sg8
F28.81
sg9
g10
sg11
F146.0
sg12
V150 Wood St San Francisco, CA 94118
p239
sg14
V150 Wood St
p240
sg16
g23
sa(dp241
g2
g3
sg4
VCustomer  147
p242
sg6
g119
sg8
F9.7
sg9
g10
sg11
F147.0
sg12
V1528 Golden Gate Ave San Francisco, CA 94115
p243
sg14
V1528 Golden Gate Ave
p244
sg16
g23
sa(dp245
g2
g3
sg4
VCustomer  148
p246
sg6
g7
sg8
F34.65
sg9
g10
sg11
F148.0
sg12
V154 Laidley St San Francisco, CA 94131
p247
sg14
V154 Laidley St
p248
sg16
g17
sa(dp249
g2
g3
sg4
VCustomer  149
p250
sg6
g119
sg8
F43.56
sg9
g10
sg11
F149.0
sg12
V1550 Broderick St San Francisco, CA 94115
p251
sg14
V1550 Broderick St
p252
sg16
g23
sa(dp253
g2
g3
sg4
VCustomer  15
p254
sg6
V94103
p255
sg8
F19.21
sg9
g10
sg11
F15.0
sg12
V1129 Mission St San Francisco, CA 94103
p256
sg14
V1129 Mission St
p257
sg16
g23
sa(dp258
g2
g3
sg4
VCustomer  150
p259
sg6
g119
sg8
F26.63
sg9
g10
sg11
F150.0
sg12
V1550 Eddy St San Francisco, CA 94115
p260
sg14
V1550 Eddy St
p261
sg16
g23
sa(dp262
g2
g3
sg4
VCustomer  151
p263
sg6
g165
sg8
F24.26
sg9
g10
sg11
F151.0
sg12
V1550 Jackson St San Francisco, CA 94109
p264
sg14
V1550 Jackson St
p265
sg16
g23
sa(dp266
g2
g3
sg4
VCustomer  152
p267
sg6
V94124
p268
sg8
F162.66
sg9
g10
sg11
F152.0
sg12
V1550 Keith St San Francisco, CA 94124
p269
sg14
V1550 Keith St
p270
sg16
g23
sa(dp271
g2
g3
sg4
VCustomer  153
p272
sg6
g268
sg8
F21.88
sg9
g10
sg11
F153.0
sg12
V1550 Newcomb Ave San Francisco, CA 94124
p273
sg14
V1550 Newcomb Ave
p274
sg16
g17
sa(dp275
g2
g3
sg4
VCustomer  154
p276
sg6
g20
sg8
F41.09
sg9
g10
sg11
F154.0
sg12
V1550 Page St San Francisco, CA 94117
p277
sg14
V1550 Page St
p278
sg16
g23
sa(dp279
g2
g3
sg4
VCustomer  155
p280
sg6
g119
sg8
F41.98
sg9
g10
sg11
F155.0
sg12
V1550 Scott St San Francisco, CA 94115
p281
sg14
V1550 Scott St
p282
sg16
g23
sa(dp283
g2
g3
sg4
VCustomer  156
p284
sg6
g165
sg8
F9.7
sg9
g10
sg11
F156.0
sg12
V1550 Sutter St San Francisco, CA 94109
p285
sg14
V1550 Sutter St
p286
sg16
g23
sa(dp287
g2
g3
sg4
VCustomer  157
p288
sg6
g119
sg8
F64.35
sg9
g10
sg11
F157.0
sg12
V1550 Webster St San Francisco, CA 94115
p289
sg14
V1550 Webster St
p290
sg16
g23
sa(dp291
g2
g3
sg4
VCustomer  158
p292
sg6
g31
sg8
F39.5
sg9
g10
sg11
F158.0
sg12
V156 Crescent Ave San Francisco, CA 94110
p293
sg14
V156 Crescent Ave
p294
sg16
g23
sa(dp295
g2
g3
sg4
VCustomer  159
p296
sg6
g49
sg8
F183.65
sg9
g10
sg11
F159.0
sg12
V1560 San Jose Ave San Francisco, CA 94112
p297
sg14
V1560 San Jose Ave
p298
sg16
g17
sa(dp299
g2
g3
sg4
VCustomer  16
p300
sg6
g119
sg8
F26.24
sg9
g10
sg11
F16.0
sg12
V1150 Buchanan St San Francisco, CA 94115
p301
sg14
V1150 Buchanan St
p302
sg16
g23
sa(dp303
g2
g3
sg4
VCustomer  160
p304
sg6
g119
sg8
F30.59
sg9
g10
sg11
F160.0
sg12
V1561 Ofarrell St San Francisco, CA 94115
p305
sg14
V1561 Ofarrell St
p306
sg16
g23
sa(dp307
g2
g3
sg4
VCustomer  161
p308
sg6
g7
sg8
F0.89
sg9
g10
sg11
F161.0
sg12
V157 Fairmount St San Francisco, CA 94131
p309
sg14
V157 Fairmount St
p310
sg16
g17
sa(dp311
g2
g3
sg4
VCustomer  162
p312
sg6
g49
sg8
F136.42
sg9
g10
sg11
F162.0
sg12
V1574 Alemany Blvd San Francisco, CA 94112
p313
sg14
V1574 Alemany Blvd
p314
sg16
g17
sa(dp315
g2
g3
sg4
VCustomer  163
p316
sg6
g119
sg8
F23.27
sg9
g10
sg11
F163.0
sg12
V1575 Ellis St San Francisco, CA 94115
p317
sg14
V1575 Ellis St
p318
sg16
g23
sa(dp319
g2
g3
sg4
VCustomer  164
p320
sg6
g119
sg8
F39.9
sg9
g10
sg11
F164.0
sg12
V1578 Golden Gate Ave San Francisco, CA 94115
p321
sg14
V1578 Golden Gate Ave
p322
sg16
g23
sa(dp323
g2
g3
sg4
VCustomer  165
p324
sg6
g31
sg8
F14.16
sg9
g10
sg11
F165.0
sg12
V158 Cortland Ave San Francisco, CA 94110
p325
sg14
V158 Cortland Ave
p326
sg16
g17
sa(dp327
g2
g3
sg4
VCustomer  166
p328
sg6
g114
sg8
F46.63
sg9
g10
sg11
F166.0
sg12
V160 Lansdale Ave San Francisco, CA 94127
p329
sg14
V160 Lansdale Ave
p330
sg16
g17
sa(dp331
g2
g3
sg4
VCustomer  167
p332
sg6
g31
sg8
F0.89
sg9
g10
sg11
F167.0
sg12
V1600 Valencia St San Francisco, CA 94110
p333
sg14
V1600 Valencia St
p334
sg16
g17
sa(dp335
g2
g3
sg4
VCustomer  168
p336
sg6
g119
sg8
F47.12
sg9
g10
sg11
F168.0
sg12
V1625 Golden Gate Ave San Francisco, CA 94115
p337
sg14
V1625 Golden Gate Ave
p338
sg16
g23
sa(dp339
g2
g3
sg4
VCustomer  169
p340
sg6
g26
sg8
F23.86
sg9
g10
sg11
F169.0
sg12
V1650 Balboa St San Francisco, CA 94121
p341
sg14
V1650 Balboa St
p342
sg16
g23
sa(dp343
g2
g3
sg4
VCustomer  17
p344
sg6
g119
sg8
F52.27
sg9
g10
sg11
F17.0
sg12
V1150 Divisadero St San Francisco, CA 94115
p345
sg14
V1150 Divisadero St
p346
sg16
g23
sa(dp347
g2
g3
sg4
VCustomer  170
p348
sg6
g119
sg8
F5.45
sg9
g10
sg11
F170.0
sg12
V1650 Divisadero St San Francisco, CA 94115
p349
sg14
V1650 Divisadero St
p350
sg16
g23
sa(dp351
g2
g3
sg4
VCustomer  171
p352
sg6
g119
sg8
F16.14
sg9
g10
sg11
F171.0
sg12
V1650 Ellis St San Francisco, CA 94115
p353
sg14
V1650 Ellis St
p354
sg16
g23
sa(dp355
g2
g3
sg4
VCustomer  172
p356
sg6
g20
sg8
F40.99
sg9
g10
sg11
F172.0
sg12
V1650 Fell St San Francisco, CA 94117
p357
sg14
V1650 Fell St
p358
sg16
g23
sa(dp359
g2
g3
sg4
VCustomer  173
p360
sg6
g119
sg8
F3.17
sg9
g10
sg11
F173.0
sg12
V1650 Fillmore St San Francisco, CA 94115
p361
sg14
V1650 Fillmore St
p362
sg16
g23
sa(dp363
g2
g3
sg4
VCustomer  174
p364
sg6
g20
sg8
F44.95
sg9
g10
sg11
F174.0
sg12
V1650 Fulton St San Francisco, CA 94117
p365
sg14
V1650 Fulton St
p366
sg16
g23
sa(dp367
g2
g3
sg4
VCustomer  175
p368
sg6
g119
sg8
F42.27
sg9
g10
sg11
F175.0
sg12
V1650 Geary Blvd San Francisco, CA 94115
p369
sg14
V1650 Geary Blvd
p370
sg16
g23
sa(dp371
g2
g3
sg4
VCustomer  176
p372
sg6
g255
sg8
F31.88
sg9
g10
sg11
F176.0
sg12
V1650 Howard St San Francisco, CA 94103
p373
sg14
V1650 Howard St
p374
sg16
g23
sa(dp375
g2
g3
sg4
VCustomer  177
p376
sg6
g119
sg8
F25.44
sg9
g10
sg11
F177.0
sg12
V1650 McAllister St San Francisco, CA 94115
p377
sg14
V1650 McAllister St
p378
sg16
g23
sa(dp379
g2
g3
sg4
VCustomer  178
p380
sg6
V94122
p381
sg8
F115.04
sg9
g10
sg11
F178.0
sg12
V1650 Moraga St San Francisco, CA 94122
p382
sg14
V1650 Moraga St
p383
sg16
g23
sa(dp384
g2
g3
sg4
VCustomer  179
p385
sg6
g40
sg8
F137.21
sg9
g10
sg11
F179.0
sg12
V1650 Silliman St San Francisco, CA 94134
p386
sg14
V1650 Silliman St
p387
sg16
g17
sa(dp388
g2
g3
sg4
VCustomer  18
p389
sg6
g119
sg8
F33.07
sg9
g10
sg11
F18.0
sg12
V1150 Fillmore St San Francisco, CA 94115
p390
sg14
V1150 Fillmore St
p391
sg16
g23
sa(dp392
g2
g3
sg4
VCustomer  180
p393
sg6
g119
sg8
F20.59
sg9
g10
sg11
F180.0
sg12
V1650 Turk St San Francisco, CA 94115
p394
sg14
V1650 Turk St
p395
sg16
g23
sa(dp396
g2
g3
sg4
VCustomer  181
p397
sg6
g255
sg8
F130.09
sg9
g10
sg11
F181.0
sg12
V1688 15th St San Francisco, CA 94103
p398
sg14
V1688 15th St
p399
sg16
g23
sa(dp400
g2
g3
sg4
VCustomer  182
p401
sg6
V94116
p402
sg8
F22.97
sg9
g10
sg11
F182.0
sg12
V17 Mendosa Ave San Francisco, CA 94116
p403
sg14
V17 Mendosa Ave
p404
sg16
g23
sa(dp405
g2
g3
sg4
VCustomer  183
p406
sg6
g119
sg8
F35.24
sg9
g10
sg11
F183.0
sg12
V1722 Ofarrell St San Francisco, CA 94115
p407
sg14
V1722 Ofarrell St
p408
sg16
g23
sa(dp409
g2
g3
sg4
VCustomer  184
p410
sg6
g255
sg8
F8.71
sg9
g10
sg11
F184.0
sg12
V1725 Mission St San Francisco, CA 94103
p411
sg14
V1725 Mission St
p412
sg16
g17
sa(dp413
g2
g3
sg4
VCustomer  185
p414
sg6
g119
sg8
F152.95
sg9
g10
sg11
F185.0
sg12
V1726 Eddy St San Francisco, CA 94115
p415
sg14
V1726 Eddy St
p416
sg16
g23
sa(dp417
g2
g3
sg4
VCustomer  186
p418
sg6
g268
sg8
F85.54
sg9
g10
sg11
F186.0
sg12
V174 Scotia Ave San Francisco, CA 94124
p419
sg14
V174 Scotia Ave
p420
sg16
g17
sa(dp421
g2
g3
sg4
VCustomer  187
p422
sg6
g81
sg8
F25.84
sg9
g10
sg11
F187.0
sg12
V175 Church St San Francisco, CA 94114
p423
sg14
V175 Church St
p424
sg16
g23
sa.