(lp0
(dp1
S'geometry'
p2
(dp3
S'type'
p4
S'Point'
p5
sS'coordinates'
p6
(lp7
F-122.437582
aF37.734031
assg4
S'Feature'
p8
sS'properties'
p9
(dp10
Vcity
p11
VSan Francisco
p12
sVname
p13
VCustomer  1
p14
sVzip
p15
V94131
p16
sVsales
p17
F131.08
sVstate
p18
VCA
p19
sVcust_id
p20
F1.0
sVlocation
p21
V100 Hamerton Ave San Francisco, CA 94131
p22
sVaddress
p23
V100 Hamerton Ave
p24
sVstore_id
p25
V2
p26
ssa(dp27
g2
(dp28
g4
g5
sg6
(lp29
F-122.437798
aF37.772127
assg4
g8
sg9
(dp30
g11
g12
sg13
VCustomer  10
p31
sg15
V94117
p32
sg17
F36.53
sg18
g19
sg20
F10.0
sg21
V1050 Page St San Francisco, CA 94117
p33
sg23
V1050 Page St
p34
sg25
V1
p35
ssa(dp36
g2
(dp37
g4
g5
sg6
(lp38
F-122.487283
aF37.78656
assg4
g8
sg9
(dp39
g11
g12
sg13
VCustomer  100
p40
sg15
V94121
p41
sg17
F192.06
sg18
g19
sg20
F100.0
sg21
V150 27th Ave San Francisco, CA 94121
p42
sg23
V150 27th Ave
p43
sg25
g35
ssa(dp44
g2
(dp45
g4
g5
sg6
(lp46
F-122.423304
aF37.747079
assg4
g8
sg9
(dp47
g11
g12
sg13
VCustomer  101
p48
sg15
V94110
p49
sg17
F12.18
sg18
g19
sg20
F101.0
sg21
V150 27th St San Francisco, CA 94110
p50
sg23
V150 27th St
p51
sg25
g26
ssa(dp52
g2
(dp53
g4
g5
sg6
(lp54
F-122.437382
aF37.731839
assg4
g8
sg9
(dp55
g11
g12
sg13
VCustomer  102
p56
sg15
g16
sg17
F79.1
sg18
g19
sg20
F102.0
sg21
V150 Acadia St San Francisco, CA 94131
p57
sg23
V150 Acadia St
p58
sg25
g26
ssa(dp59
g2
(dp60
g4
g5
sg6
(lp61
F-122.4058
aF37.713462
assg4
g8
sg9
(dp62
g11
g12
sg13
VCustomer  103
p63
sg15
V94134
p64
sg17
F178.0
sg18
g19
sg20
F103.0
sg21
V150 Arleta Ave San Francisco, CA 94134
p65
sg23
V150 Arleta Ave
p66
sg25
g26
ssa(dp67
g2
(dp68
g4
g5
sg6
(lp69
F-122.447531
aF37.77417
assg4
g8
sg9
(dp70
g11
g12
sg13
VCustomer  104
p71
sg15
g32
sg17
F19.8
sg18
g19
sg20
F104.0
sg21
V150 Ashbury St San Francisco, CA 94117
p72
sg23
V150 Ashbury St
p73
sg25
g35
ssa(dp74
g2
(dp75
g4
g5
sg6
(lp76
F-122.440145
aF37.71857
assg4
g8
sg9
(dp77
g11
g12
sg13
VCustomer  105
p78
sg15
V94112
p79
sg17
F25.15
sg18
g19
sg20
F105.0
sg21
V150 Bertita St San Francisco, CA 94112
p80
sg23
V150 Bertita St
p81
sg25
g26
ssa.